(lp0
F0.19635009765625
aF0.1962236328125
aF0.19622363281250002
aF0.19622363281250002
aF0.1960986328125
aF0.19609863281250003
aF0.19609863281250003
aF0.19597363281250002
aF0.19597363281250005
aF0.19597363281250005
aF0.19584863281250003
aF0.19584863281250006
aF0.19584863281250006
aF0.19572363281250005
aF0.19572363281250008
aF0.19559863281250006
aF0.1955986328125001
aF0.1955986328125001
aF0.19547363281250008
aF0.1954736328125001
aF0.1954736328125001
aF0.1953486328125001
aF0.19534863281250012
aF0.19534863281250012
aF0.1952236328125001
aF0.19522363281250013
aF0.19509863281250012
aF0.19509863281250014
aF0.19509863281250014
aF0.19497363281250013
aF0.19497363281250016
aF0.19497363281250016
aF0.19484863281250014
aF0.19484863281250017
aF0.19484863281250017
aF0.19472363281250016
aF0.19472363281250019
aF0.19459863281250017
aF0.1945986328125002
aF0.1945986328125002
aF0.19447363281250019
aF0.1944736328125002
aF0.1944736328125002
aF0.1943486328125002
aF0.19434863281250023
aF0.19434863281250023
aF0.1942236328125002
aF0.19422363281250024
aF0.19409863281250023
aF0.19409863281250025
aF0.19409863281250025
aF0.19397363281250024
aF0.19397363281250027
aF0.19397363281250027
aF0.19384863281250025
aF0.19384863281250028
aF0.19372363281250027
aF0.1937236328125003
aF0.1937236328125003
aF0.19359863281250028
aF0.1935986328125003
aF0.1935986328125003
aF0.1934736328125003
aF0.19347363281250032
aF0.1933486328125003
aF0.19334863281250034
aF0.19334863281250034
aF0.19322363281250032
aF0.19322363281250035
aF0.19322363281250035
aF0.19309863281250034
aF0.19309863281250036
aF0.19309863281250036
aF0.19297363281250035
aF0.19297363281250038
aF0.19284863281250036
aF0.1928486328125004
aF0.1928486328125004
aF0.19272363281250038
aF0.1927236328125004
aF0.1925986328125004
aF0.19259863281250042
aF0.19259863281250042
aF0.1924736328125004
aF0.19247363281250043
aF0.19247363281250043
aF0.19234863281250042
aF0.19234863281250045
aF0.19222363281250043
aF0.19222363281250046
aF0.19222363281250046
aF0.19209863281250045
aF0.19209863281250047
aF0.19209863281250047
aF0.19197363281250046
aF0.1919736328125005
aF0.19184863281250047
aF0.1918486328125005
aF0.1918486328125005
aF0.1917236328125005
aF0.19172363281250052
aF0.19172363281250052
aF0.1915986328125005
aF0.19159863281250053
aF0.19147363281250052
aF0.19147363281250054
aF0.19147363281250054
aF0.19134863281250053
aF0.19134863281250056
aF0.19122363281250054
aF0.19122363281250057
aF0.19122363281250057
aF0.19109863281250056
aF0.19109863281250059
aF0.19109863281250059
aF0.19097363281250057
aF0.1909736328125006
aF0.19084863281250058
aF0.1908486328125006
aF0.1908486328125006
aF0.1907236328125006
aF0.19072363281250063
aF0.1905986328125006
aF0.19059863281250064
aF0.19059863281250064
aF0.19047363281250063
aF0.19047363281250065
aF0.19034863281250064
aF0.19034863281250067
aF0.19034863281250067
aF0.19022363281250065
aF0.19022363281250068
aF0.19022363281250068
aF0.19009863281250067
aF0.1900986328125007
aF0.18997363281250068
aF0.1899736328125007
aF0.1899736328125007
aF0.1898486328125007
aF0.18984863281250072
aF0.1897236328125007
aF0.18972363281250074
aF0.18972363281250074
aF0.18959863281250072
aF0.18959863281250075
aF0.18947363281250074
aF0.18947363281250076
aF0.18947363281250076
aF0.18934863281250075
aF0.18934863281250078
aF0.18922363281250076
aF0.1892236328125008
aF0.1892236328125008
aF0.18909863281250078
aF0.1890986328125008
aF0.1889736328125008
aF0.18897363281250082
aF0.18897363281250082
aF0.1888486328125008
aF0.18884863281250083
aF0.18872363281250082
aF0.18872363281250085
aF0.18872363281250085
aF0.18859863281250083
aF0.18859863281250086
aF0.18847363281250085
aF0.18847363281250087
aF0.18847363281250087
aF0.18834863281250086
aF0.1883486328125009
aF0.18822363281250087
aF0.1882236328125009
aF0.1882236328125009
aF0.1880986328125009
aF0.18809863281250092
aF0.1879736328125009
aF0.18797363281250093
aF0.18797363281250093
aF0.18784863281250092
aF0.18784863281250094
aF0.18772363281250093
aF0.18772363281250096
aF0.18772363281250096
aF0.18759863281250094
aF0.18759863281250097
aF0.18747363281250096
aF0.18747363281250098
aF0.18747363281250098
aF0.18734863281250097
aF0.187348632812501
aF0.18722363281250098
aF0.187223632812501
aF0.187223632812501
aF0.187098632812501
aF0.18709863281250103
aF0.186973632812501
aF0.18697363281250104
aF0.18697363281250104
aF0.18684863281250103
aF0.18684863281250105
aF0.18672363281250104
aF0.18672363281250107
aF0.18659863281250105
aF0.18659863281250108
aF0.18659863281250108
aF0.18647363281250107
aF0.1864736328125011
aF0.18634863281250108
aF0.1863486328125011
aF0.1863486328125011
aF0.1862236328125011
aF0.18622363281250112
aF0.1860986328125011
aF0.18609863281250114
aF0.18597363281250112
aF0.18597363281250115
aF0.18597363281250115
aF0.18584863281250114
aF0.18584863281250116
aF0.18572363281250115
aF0.18572363281250118
aF0.18572363281250118
aF0.18559863281250116
aF0.1855986328125012
aF0.18547363281250118
aF0.1854736328125012
aF0.1853486328125012
aF0.18534863281250122
aF0.18534863281250122
aF0.1852236328125012
aF0.18522363281250123
aF0.18509863281250122
aF0.18509863281250125
aF0.18509863281250125
aF0.18497363281250123
aF0.18497363281250126
aF0.18484863281250125
aF0.18484863281250127
aF0.18472363281250126
aF0.1847236328125013
aF0.1847236328125013
aF0.18459863281250127
aF0.1845986328125013
aF0.1844736328125013
aF0.18447363281250131
aF0.1843486328125013
aF0.18434863281250133
aF0.18434863281250133
aF0.18422363281250131
aF0.18422363281250134
aF0.18409863281250133
aF0.18409863281250136
aF0.18397363281250134
aF0.18397363281250137
aF0.18397363281250137
aF0.18384863281250136
aF0.18384863281250138
aF0.18372363281250137
aF0.1837236328125014
aF0.18359863281250138
aF0.1835986328125014
aF0.1835986328125014
aF0.1834736328125014
aF0.18347363281250142
aF0.1833486328125014
aF0.18334863281250144
aF0.18322363281250142
aF0.18322363281250145
aF0.18322363281250145
aF0.18309863281250144
aF0.18309863281250147
aF0.18297363281250145
aF0.18297363281250148
aF0.18284863281250147
aF0.1828486328125015
aF0.18272363281250148
aF0.1827236328125015
aF0.1827236328125015
aF0.1825986328125015
aF0.18259863281250152
aF0.1824736328125015
aF0.18247363281250153
aF0.18234863281250152
aF0.18234863281250155
aF0.18234863281250155
aF0.18222363281250153
aF0.18222363281250156
aF0.18209863281250155
aF0.18209863281250158
aF0.18197363281250156
aF0.1819736328125016
aF0.18184863281250158
aF0.1818486328125016
aF0.1818486328125016
aF0.1817236328125016
aF0.18172363281250162
aF0.1815986328125016
aF0.18159863281250163
aF0.18147363281250162
aF0.18147363281250165
aF0.18134863281250163
aF0.18134863281250166
aF0.18134863281250166
aF0.18122363281250164
aF0.18122363281250167
aF0.18109863281250166
aF0.1810986328125017
aF0.18097363281250167
aF0.1809736328125017
aF0.1808486328125017
aF0.18084863281250171
aF0.18084863281250171
aF0.1807236328125017
aF0.18072363281250173
aF0.1805986328125017
aF0.18059863281250174
aF0.18047363281250173
aF0.18047363281250176
aF0.18034863281250174
aF0.18034863281250177
aF0.18022363281250176
aF0.18022363281250178
aF0.18022363281250178
aF0.18009863281250177
aF0.1800986328125018
aF0.17997363281250178
aF0.1799736328125018
aF0.1798486328125018
aF0.17984863281250182
aF0.1797236328125018
aF0.17972363281250184
aF0.17959863281250182
aF0.17959863281250185
aF0.17959863281250185
aF0.17947363281250184
aF0.17947363281250187
aF0.17934863281250185
aF0.17934863281250188
aF0.17922363281250187
aF0.1792236328125019
aF0.17909863281250188
aF0.1790986328125019
aF0.1789736328125019
aF0.17897363281250192
aF0.1788486328125019
aF0.17884863281250193
aF0.17872363281250192
aF0.17872363281250195
aF0.17872363281250195
aF0.17859863281250193
aF0.17859863281250196
aF0.17847363281250195
aF0.17847363281250198
aF0.17834863281250196
aF0.178348632812502
aF0.17822363281250198
aF0.178223632812502
aF0.178098632812502
aF0.17809863281250202
aF0.177973632812502
aF0.17797363281250203
aF0.17784863281250202
aF0.17784863281250204
aF0.17784863281250204
aF0.17772363281250203
aF0.17772363281250206
aF0.17759863281250204
aF0.17759863281250207
aF0.17747363281250206
aF0.17747363281250209
aF0.17734863281250207
aF0.1773486328125021
aF0.17722363281250209
aF0.1772236328125021
aF0.1770986328125021
aF0.17709863281250213
aF0.1769736328125021
aF0.17697363281250214
aF0.17684863281250213
aF0.17684863281250215
aF0.17672363281250214
aF0.17672363281250217
aF0.17659863281250215
aF0.17659863281250218
aF0.17659863281250218
aF0.17647363281250217
aF0.1764736328125022
aF0.17634863281250218
aF0.1763486328125022
aF0.1762236328125022
aF0.17622363281250222
aF0.1760986328125022
aF0.17609863281250224
aF0.17597363281250222
aF0.17597363281250225
aF0.17584863281250224
aF0.17584863281250226
aF0.17572363281250225
aF0.17572363281250228
aF0.17559863281250226
aF0.1755986328125023
aF0.17547363281250228
aF0.1754736328125023
aF0.1753486328125023
aF0.17534863281250232
aF0.1752236328125023
aF0.17522363281250233
aF0.17509863281250232
aF0.17509863281250235
aF0.17497363281250233
aF0.17497363281250236
aF0.17484863281250235
aF0.17484863281250237
aF0.17472363281250236
aF0.1747236328125024
aF0.17459863281250237
aF0.1745986328125024
aF0.1744736328125024
aF0.17447363281250242
aF0.1743486328125024
aF0.17434863281250243
aF0.17422363281250242
aF0.17422363281250244
aF0.17409863281250243
aF0.17409863281250246
aF0.17397363281250244
aF0.17397363281250247
aF0.17384863281250246
aF0.17384863281250248
aF0.17372363281250247
aF0.1737236328125025
aF0.17359863281250248
aF0.1735986328125025
aF0.1734736328125025
aF0.17347363281250253
aF0.1733486328125025
aF0.17334863281250254
aF0.17322363281250253
aF0.17322363281250255
aF0.17309863281250254
aF0.17309863281250257
aF0.17297363281250255
aF0.17297363281250258
aF0.17284863281250257
aF0.1728486328125026
aF0.17272363281250258
aF0.1727236328125026
aF0.1725986328125026
aF0.17259863281250262
aF0.1724736328125026
aF0.17247363281250264
aF0.17234863281250262
aF0.17234863281250265
aF0.17222363281250264
aF0.17222363281250266
aF0.17209863281250265
aF0.17209863281250268
aF0.17197363281250266
aF0.1719736328125027
aF0.17184863281250268
aF0.1718486328125027
aF0.1717236328125027
aF0.17172363281250272
aF0.1715986328125027
aF0.17147363281250272
aF0.17147363281250275
aF0.17134863281250273
aF0.17134863281250276
aF0.17122363281250275
aF0.17122363281250277
aF0.17109863281250276
aF0.1710986328125028
aF0.17097363281250277
aF0.1709736328125028
aF0.1708486328125028
aF0.17084863281250282
aF0.1707236328125028
aF0.17072363281250283
aF0.17059863281250282
aF0.17059863281250284
aF0.17047363281250283
aF0.17047363281250286
aF0.17034863281250284
aF0.17022363281250286
aF0.17022363281250288
aF0.17009863281250287
aF0.1700986328125029
aF0.16997363281250288
aF0.1699736328125029
aF0.1698486328125029
aF0.16984863281250293
aF0.1697236328125029
aF0.16972363281250294
aF0.16959863281250293
aF0.16959863281250295
aF0.16947363281250294
aF0.16947363281250297
aF0.16934863281250295
aF0.16922363281250297
aF0.169223632812503
aF0.16909863281250298
aF0.169098632812503
aF0.168973632812503
aF0.16897363281250302
aF0.168848632812503
aF0.16884863281250304
aF0.16872363281250302
aF0.16872363281250305
aF0.16859863281250304
aF0.16847363281250305
aF0.16847363281250308
aF0.16834863281250306
aF0.1683486328125031
aF0.16822363281250308
aF0.1682236328125031
aF0.1680986328125031
aF0.16809863281250312
aF0.1679736328125031
aF0.16797363281250313
aF0.16784863281250312
aF0.16772363281250313
aF0.16772363281250316
aF0.16759863281250315
aF0.16759863281250317
aF0.16747363281250316
aF0.1674736328125032
aF0.16734863281250317
aF0.1673486328125032
aF0.1672236328125032
aF0.1670986328125032
aF0.16709863281250323
aF0.16697363281250321
aF0.16697363281250324
aF0.16684863281250323
aF0.16684863281250326
aF0.16672363281250324
aF0.16659863281250326
aF0.16659863281250328
aF0.16647363281250327
aF0.1664736328125033
aF0.16634863281250328
aF0.1663486328125033
aF0.1662236328125033
aF0.16622363281250332
aF0.1660986328125033
aF0.16597363281250332
aF0.16597363281250335
aF0.16584863281250334
aF0.16584863281250337
aF0.16572363281250335
aF0.16572363281250338
aF0.16559863281250337
aF0.16547363281250338
aF0.1654736328125034
aF0.1653486328125034
aF0.16534863281250342
aF0.1652236328125034
aF0.16522363281250343
aF0.16509863281250342
aF0.16497363281250343
aF0.16497363281250346
aF0.16484863281250345
aF0.16484863281250348
aF0.16472363281250346
aF0.16459863281250348
aF0.1645986328125035
aF0.1644736328125035
aF0.16447363281250352
aF0.1643486328125035
aF0.16434863281250353
aF0.16422363281250352
aF0.16409863281250353
aF0.16409863281250356
aF0.16397363281250354
aF0.16397363281250357
aF0.16384863281250356
aF0.16372363281250357
aF0.1637236328125036
aF0.16359863281250359
aF0.1635986328125036
aF0.1634736328125036
aF0.1633486328125036
aF0.16334863281250364
aF0.16322363281250363
aF0.16322363281250366
aF0.16309863281250364
aF0.16297363281250365
aF0.16297363281250368
aF0.16284863281250367
aF0.1628486328125037
aF0.16272363281250368
aF0.1625986328125037
aF0.16259863281250372
aF0.1624736328125037
aF0.16247363281250374
aF0.16234863281250372
aF0.16222363281250374
aF0.16222363281250377
aF0.16209863281250375
aF0.16209863281250378
aF0.16197363281250376
aF0.16184863281250378
aF0.1618486328125038
aF0.1617236328125038
aF0.16172363281250382
aF0.1615986328125038
aF0.16147363281250382
aF0.16147363281250385
aF0.16134863281250383
aF0.16134863281250386
aF0.16122363281250385
aF0.16109863281250386
aF0.1610986328125039
aF0.16097363281250388
aF0.1608486328125039
aF0.16084863281250392
aF0.1607236328125039
aF0.16072363281250393
aF0.16059863281250392
aF0.16047363281250393
aF0.16047363281250396
aF0.16034863281250394
aF0.16022363281250396
aF0.16022363281250399
aF0.16009863281250397
aF0.160098632812504
aF0.15997363281250399
aF0.159848632812504
aF0.15984863281250403
aF0.159723632812504
aF0.15959863281250403
aF0.15959863281250405
aF0.15947363281250404
aF0.15947363281250407
aF0.15934863281250405
aF0.15922363281250407
aF0.1592236328125041
aF0.15909863281250408
aF0.1589736328125041
aF0.15897363281250412
aF0.1588486328125041
aF0.15872363281250412
aF0.15872363281250415
aF0.15859863281250414
aF0.15859863281250416
aF0.15847363281250415
aF0.15834863281250416
aF0.1583486328125042
aF0.15822363281250418
aF0.1580986328125042
aF0.15809863281250422
aF0.1579736328125042
aF0.15784863281250422
aF0.15784863281250425
aF0.15772363281250423
aF0.15759863281250425
aF0.15759863281250427
aF0.15747363281250426
aF0.15734863281250427
aF0.1573486328125043
aF0.1572236328125043
aF0.1570986328125043
aF0.15709863281250433
aF0.15697363281250432
aF0.15684863281250433
aF0.15684863281250436
aF0.15672363281250434
aF0.15672363281250437
aF0.15659863281250436
aF0.15647363281250437
aF0.1564736328125044
aF0.15634863281250438
aF0.1562236328125044
aF0.15622363281250443
aF0.1560986328125044
aF0.15597363281250443
aF0.15584863281250444
aF0.15584863281250447
aF0.15572363281250445
aF0.15559863281250447
aF0.1555986328125045
aF0.15547363281250448
aF0.1553486328125045
aF0.15534863281250452
aF0.1552236328125045
aF0.15509863281250452
aF0.15509863281250455
aF0.15497363281250454
aF0.15484863281250455
aF0.15484863281250458
aF0.15472363281250456
aF0.15459863281250458
aF0.1545986328125046
aF0.1544736328125046
aF0.1543486328125046
aF0.15434863281250463
aF0.15422363281250462
aF0.15409863281250463
aF0.15397363281250465
aF0.15397363281250467
aF0.15384863281250466
aF0.15372363281250467
aF0.1537236328125047
aF0.1535986328125047
aF0.1534736328125047
aF0.15347363281250473
aF0.15334863281250471
aF0.15322363281250473
aF0.15309863281250474
aF0.15309863281250477
aF0.15297363281250476
aF0.15284863281250477
aF0.1528486328125048
aF0.15272363281250478
aF0.1525986328125048
aF0.15259863281250483
aF0.1524736328125048
aF0.15234863281250483
aF0.15222363281250484
aF0.15222363281250487
aF0.15209863281250485
aF0.15197363281250487
aF0.1519736328125049
aF0.15184863281250488
aF0.1517236328125049
aF0.1515986328125049
aF0.15159863281250494
aF0.15147363281250492
aF0.15134863281250494
aF0.15122363281250495
aF0.15122363281250498
aF0.15109863281250496
aF0.15097363281250498
aF0.150973632812505
aF0.150848632812505
aF0.150723632812505
aF0.15059863281250502
aF0.15059863281250505
aF0.15047363281250503
aF0.15034863281250505
aF0.15022363281250506
aF0.1502236328125051
aF0.15009863281250507
aF0.1499736328125051
aF0.1498486328125051
aF0.14984863281250513
aF0.14972363281250511
aF0.14959863281250513
aF0.14947363281250514
aF0.14947363281250517
aF0.14934863281250516
aF0.14922363281250517
aF0.14909863281250518
aF0.1490986328125052
aF0.1489736328125052
aF0.1488486328125052
aF0.14872363281250522
aF0.14872363281250525
aF0.14859863281250524
aF0.14847363281250525
aF0.14834863281250527
aF0.1483486328125053
aF0.14822363281250528
aF0.1480986328125053
aF0.1479736328125053
aF0.14797363281250533
aF0.14784863281250532
aF0.14772363281250533
aF0.14759863281250535
aF0.14759863281250538
aF0.14747363281250536
aF0.14734863281250538
aF0.1472236328125054
aF0.1470986328125054
aF0.14709863281250543
aF0.14697363281250542
aF0.14684863281250543
aF0.14672363281250544
aF0.14659863281250546
aF0.14659863281250549
aF0.14647363281250547
aF0.14634863281250549
aF0.1462236328125055
aF0.14622363281250553
aF0.1460986328125055
aF0.14597363281250553
aF0.14584863281250554
aF0.14572363281250555
aF0.14572363281250558
aF0.14559863281250557
aF0.14547363281250558
aF0.1453486328125056
aF0.1452236328125056
aF0.14522363281250564
aF0.14509863281250562
aF0.14497363281250564
aF0.14484863281250565
aF0.14472363281250566
aF0.1447236328125057
aF0.14459863281250568
aF0.1444736328125057
aF0.1443486328125057
aF0.14422363281250572
aF0.14409863281250573
aF0.14409863281250576
aF0.14397363281250575
aF0.14384863281250576
aF0.14372363281250577
aF0.1435986328125058
aF0.1434736328125058
aF0.14347363281250583
aF0.14334863281250582
aF0.14322363281250583
aF0.14309863281250584
aF0.14297363281250586
aF0.14284863281250587
aF0.1428486328125059
aF0.14272363281250589
aF0.1425986328125059
aF0.1424736328125059
aF0.14234863281250593
aF0.14222363281250594
aF0.14222363281250597
aF0.14209863281250595
aF0.14197363281250597
aF0.14184863281250598
aF0.141723632812506
aF0.141598632812506
aF0.14147363281250602
aF0.14147363281250605
aF0.14134863281250604
aF0.14122363281250605
aF0.14109863281250606
aF0.14097363281250608
aF0.1408486328125061
aF0.1407236328125061
aF0.14072363281250613
aF0.14059863281250612
aF0.14047363281250613
aF0.14034863281250615
aF0.14022363281250616
aF0.14009863281250617
aF0.1399736328125062
aF0.1398486328125062
aF0.13984863281250623
aF0.13972363281250622
aF0.13959863281250623
aF0.13947363281250624
aF0.13934863281250626
aF0.13922363281250627
aF0.13909863281250628
aF0.1389736328125063
aF0.1388486328125063
aF0.13884863281250634
aF0.13872363281250633
aF0.13859863281250634
aF0.13847363281250635
aF0.13834863281250637
aF0.13822363281250638
aF0.1380986328125064
aF0.1379736328125064
aF0.13784863281250642
aF0.13772363281250644
aF0.13759863281250645
aF0.13759863281250648
aF0.13747363281250646
aF0.13734863281250648
aF0.1372236328125065
aF0.1370986328125065
aF0.13697363281250652
aF0.13684863281250653
aF0.13672363281250655
aF0.13659863281250656
aF0.13647363281250657
aF0.1363486328125066
aF0.1362236328125066
aF0.13609863281250661
aF0.13597363281250663
aF0.13597363281250666
aF0.13584863281250664
aF0.13572363281250666
aF0.13559863281250667
aF0.13547363281250668
aF0.1353486328125067
aF0.1352236328125067
aF0.13509863281250672
aF0.13497363281250674
aF0.13484863281250675
aF0.13472363281250677
aF0.13459863281250678
aF0.1344736328125068
aF0.1343486328125068
aF0.13422363281250682
aF0.13409863281250683
aF0.13397363281250685
aF0.13384863281250686
aF0.13372363281250688
aF0.1335986328125069
aF0.1334736328125069
aF0.13334863281250692
aF0.13322363281250693
aF0.13309863281250695
aF0.13297363281250696
aF0.13284863281250697
aF0.132723632812507
aF0.132598632812507
aF0.13247363281250701
aF0.13234863281250703
aF0.13222363281250704
aF0.13209863281250706
aF0.13197363281250707
aF0.13184863281250708
aF0.1317236328125071
aF0.1315986328125071
aF0.13147363281250712
aF0.13134863281250714
aF0.13122363281250715
aF0.13109863281250717
aF0.13097363281250718
aF0.1308486328125072
aF0.1307236328125072
aF0.13059863281250722
aF0.13047363281250723
aF0.13034863281250725
aF0.13022363281250726
aF0.13009863281250728
aF0.1299736328125073
aF0.1298486328125073
aF0.12972363281250732
aF0.12959863281250733
aF0.12947363281250734
aF0.12934863281250736
aF0.12922363281250737
aF0.12909863281250739
aF0.1288486328125074
aF0.1287236328125074
aF0.12859863281250739
aF0.1284736328125074
aF0.1283486328125074
aF0.12822363281250743
aF0.12809863281250744
aF0.12797363281250745
aF0.12784863281250747
aF0.12772363281250748
aF0.1275986328125075
aF0.1274736328125075
aF0.12722363281250754
aF0.12709863281250752
aF0.1269736328125075
aF0.12684863281250752
aF0.12672363281250754
aF0.12659863281250755
aF0.12647363281250756
aF0.12634863281250758
aF0.1262236328125076
aF0.1260986328125076
aF0.12584863281250763
aF0.12572363281250762
aF0.1255986328125076
aF0.12547363281250762
aF0.12534863281250763
aF0.12522363281250765
aF0.12509863281250766
aF0.12497363281250769
aF0.1247236328125077
aF0.12459863281250769
aF0.1244736328125077
aF0.12434863281250769
aF0.1242236328125077
aF0.12409863281250769
aF0.12384863281250769
aF0.1237236328125077
aF0.12359863281250769
aF0.1234736328125077
aF0.12334863281250769
aF0.1232236328125077
aF0.1229736328125077
aF0.12284863281250769
aF0.1227236328125077
aF0.12259863281250769
aF0.1224736328125077
aF0.12234863281250768
aF0.12209863281250768
aF0.1219736328125077
aF0.12184863281250768
aF0.1217236328125077
aF0.12159863281250768
aF0.12134863281250768
aF0.1212236328125077
aF0.12109863281250768
aF0.1209736328125077
aF0.1207236328125077
aF0.12059863281250768
aF0.1204736328125077
aF0.12034863281250768
aF0.12009863281250768
aF0.1199736328125077
aF0.11984863281250768
aF0.1197236328125077
a.