(lp0
F0.18878173828125
aF0.1886552734375
aF0.18865527343750002
aF0.18865527343750002
aF0.1885302734375
aF0.18853027343750003
aF0.18840527343750002
aF0.18840527343750005
aF0.18840527343750005
aF0.18828027343750003
aF0.18828027343750006
aF0.18815527343750005
aF0.18815527343750008
aF0.18815527343750008
aF0.18803027343750006
aF0.1880302734375001
aF0.18790527343750008
aF0.1879052734375001
aF0.1879052734375001
aF0.1877802734375001
aF0.18778027343750012
aF0.18778027343750012
aF0.1876552734375001
aF0.18765527343750013
aF0.18753027343750012
aF0.18753027343750014
aF0.18753027343750014
aF0.18740527343750013
aF0.18740527343750016
aF0.18728027343750014
aF0.18728027343750017
aF0.18728027343750017
aF0.18715527343750016
aF0.18715527343750019
aF0.18703027343750017
aF0.1870302734375002
aF0.1870302734375002
aF0.18690527343750019
aF0.1869052734375002
aF0.1867802734375002
aF0.18678027343750023
aF0.18678027343750023
aF0.1866552734375002
aF0.18665527343750024
aF0.18653027343750023
aF0.18653027343750025
aF0.18653027343750025
aF0.18640527343750024
aF0.18640527343750027
aF0.18628027343750025
aF0.18628027343750028
aF0.18628027343750028
aF0.18615527343750027
aF0.1861552734375003
aF0.18603027343750028
aF0.1860302734375003
aF0.1860302734375003
aF0.1859052734375003
aF0.18590527343750032
aF0.1857802734375003
aF0.18578027343750034
aF0.18578027343750034
aF0.18565527343750032
aF0.18565527343750035
aF0.18553027343750034
aF0.18553027343750036
aF0.18553027343750036
aF0.18540527343750035
aF0.18540527343750038
aF0.18528027343750036
aF0.1852802734375004
aF0.1852802734375004
aF0.18515527343750038
aF0.1851552734375004
aF0.1850302734375004
aF0.18503027343750042
aF0.18503027343750042
aF0.1849052734375004
aF0.18490527343750043
aF0.18478027343750042
aF0.18478027343750045
aF0.18465527343750043
aF0.18465527343750046
aF0.18465527343750046
aF0.18453027343750045
aF0.18453027343750047
aF0.18440527343750046
aF0.1844052734375005
aF0.1844052734375005
aF0.18428027343750047
aF0.1842802734375005
aF0.1841552734375005
aF0.18415527343750052
aF0.18415527343750052
aF0.1840302734375005
aF0.18403027343750053
aF0.18390527343750052
aF0.18390527343750054
aF0.18378027343750053
aF0.18378027343750056
aF0.18378027343750056
aF0.18365527343750054
aF0.18365527343750057
aF0.18353027343750056
aF0.18353027343750059
aF0.18353027343750059
aF0.18340527343750057
aF0.1834052734375006
aF0.18328027343750058
aF0.1832802734375006
aF0.1831552734375006
aF0.18315527343750063
aF0.18315527343750063
aF0.1830302734375006
aF0.18303027343750064
aF0.18290527343750063
aF0.18290527343750065
aF0.18278027343750064
aF0.18278027343750067
aF0.18278027343750067
aF0.18265527343750065
aF0.18265527343750068
aF0.18253027343750067
aF0.1825302734375007
aF0.1825302734375007
aF0.18240527343750068
aF0.1824052734375007
aF0.1822802734375007
aF0.18228027343750072
aF0.1821552734375007
aF0.18215527343750074
aF0.18215527343750074
aF0.18203027343750072
aF0.18203027343750075
aF0.18190527343750074
aF0.18190527343750076
aF0.18178027343750075
aF0.18178027343750078
aF0.18178027343750078
aF0.18165527343750076
aF0.1816552734375008
aF0.18153027343750078
aF0.1815302734375008
aF0.1814052734375008
aF0.18140527343750082
aF0.18140527343750082
aF0.1812802734375008
aF0.18128027343750083
aF0.18115527343750082
aF0.18115527343750085
aF0.18103027343750083
aF0.18103027343750086
aF0.18090527343750085
aF0.18090527343750087
aF0.18090527343750087
aF0.18078027343750086
aF0.1807802734375009
aF0.18065527343750087
aF0.1806552734375009
aF0.1805302734375009
aF0.18053027343750092
aF0.18053027343750092
aF0.1804052734375009
aF0.18040527343750093
aF0.18028027343750092
aF0.18028027343750094
aF0.18015527343750093
aF0.18015527343750096
aF0.18003027343750094
aF0.18003027343750097
aF0.18003027343750097
aF0.17990527343750096
aF0.17990527343750098
aF0.17978027343750097
aF0.179780273437501
aF0.17965527343750098
aF0.179655273437501
aF0.179530273437501
aF0.17953027343750103
aF0.17953027343750103
aF0.179405273437501
aF0.17940527343750104
aF0.17928027343750103
aF0.17928027343750105
aF0.17915527343750104
aF0.17915527343750107
aF0.17903027343750105
aF0.17903027343750108
aF0.17903027343750108
aF0.17890527343750107
aF0.1789052734375011
aF0.17878027343750108
aF0.1787802734375011
aF0.1786552734375011
aF0.17865527343750112
aF0.1785302734375011
aF0.17853027343750114
aF0.17840527343750112
aF0.17840527343750115
aF0.17840527343750115
aF0.17828027343750114
aF0.17828027343750116
aF0.17815527343750115
aF0.17815527343750118
aF0.17803027343750116
aF0.1780302734375012
aF0.17790527343750118
aF0.1779052734375012
aF0.1777802734375012
aF0.17778027343750122
aF0.17778027343750122
aF0.1776552734375012
aF0.17765527343750123
aF0.17753027343750122
aF0.17753027343750125
aF0.17740527343750123
aF0.17740527343750126
aF0.17728027343750125
aF0.17728027343750127
aF0.17715527343750126
aF0.1771552734375013
aF0.17703027343750127
aF0.1770302734375013
aF0.1769052734375013
aF0.17690527343750131
aF0.17690527343750131
aF0.1767802734375013
aF0.17678027343750133
aF0.17665527343750131
aF0.17665527343750134
aF0.17653027343750133
aF0.17653027343750136
aF0.17640527343750134
aF0.17640527343750137
aF0.17628027343750136
aF0.17628027343750138
aF0.17615527343750137
aF0.1761552734375014
aF0.17603027343750138
aF0.1760302734375014
aF0.1760302734375014
aF0.1759052734375014
aF0.17590527343750142
aF0.1757802734375014
aF0.17578027343750144
aF0.17565527343750142
aF0.17565527343750145
aF0.17553027343750144
aF0.17553027343750147
aF0.17540527343750145
aF0.17540527343750148
aF0.17528027343750147
aF0.1752802734375015
aF0.17515527343750148
aF0.1751552734375015
aF0.1750302734375015
aF0.17503027343750152
aF0.1749052734375015
aF0.17490527343750153
aF0.17478027343750152
aF0.17478027343750155
aF0.17465527343750153
aF0.17465527343750156
aF0.17453027343750155
aF0.17453027343750158
aF0.17453027343750158
aF0.17440527343750156
aF0.1744052734375016
aF0.17428027343750158
aF0.1742802734375016
aF0.1741552734375016
aF0.17415527343750162
aF0.1740302734375016
aF0.17403027343750163
aF0.17390527343750162
aF0.17390527343750165
aF0.17378027343750163
aF0.17378027343750166
aF0.17365527343750164
aF0.17365527343750167
aF0.17353027343750166
aF0.1735302734375017
aF0.17340527343750167
aF0.1734052734375017
aF0.1732802734375017
aF0.17328027343750171
aF0.1731552734375017
aF0.17315527343750173
aF0.1730302734375017
aF0.17303027343750174
aF0.17290527343750173
aF0.17290527343750176
aF0.17278027343750174
aF0.17278027343750177
aF0.17265527343750176
aF0.17265527343750178
aF0.17253027343750177
aF0.1725302734375018
aF0.17240527343750178
aF0.1724052734375018
aF0.1722802734375018
aF0.17228027343750182
aF0.1721552734375018
aF0.17215527343750184
aF0.17203027343750182
aF0.17203027343750185
aF0.17190527343750184
aF0.17190527343750187
aF0.17178027343750185
aF0.17178027343750188
aF0.17165527343750187
aF0.1716552734375019
aF0.17153027343750188
aF0.1715302734375019
aF0.1714052734375019
aF0.17140527343750192
aF0.1712802734375019
aF0.17128027343750193
aF0.17115527343750192
aF0.17103027343750193
aF0.17103027343750196
aF0.17090527343750195
aF0.17090527343750198
aF0.17078027343750196
aF0.170780273437502
aF0.17065527343750198
aF0.170655273437502
aF0.170530273437502
aF0.17053027343750202
aF0.170405273437502
aF0.17040527343750203
aF0.17028027343750202
aF0.17028027343750204
aF0.17015527343750203
aF0.17015527343750206
aF0.17003027343750204
aF0.17003027343750207
aF0.16990527343750206
aF0.16990527343750209
aF0.16978027343750207
aF0.16965527343750209
aF0.1696552734375021
aF0.1695302734375021
aF0.16953027343750213
aF0.1694052734375021
aF0.16940527343750214
aF0.16928027343750213
aF0.16928027343750215
aF0.16915527343750214
aF0.16915527343750217
aF0.16903027343750215
aF0.16903027343750218
aF0.16890527343750217
aF0.1689052734375022
aF0.16878027343750218
aF0.1686552734375022
aF0.16865527343750222
aF0.1685302734375022
aF0.16853027343750224
aF0.16840527343750222
aF0.16840527343750225
aF0.16828027343750224
aF0.16828027343750226
aF0.16815527343750225
aF0.16815527343750228
aF0.16803027343750226
aF0.1680302734375023
aF0.16790527343750228
aF0.1677802734375023
aF0.16778027343750232
aF0.1676552734375023
aF0.16765527343750233
aF0.16753027343750232
aF0.16753027343750235
aF0.16740527343750233
aF0.16740527343750236
aF0.16728027343750235
aF0.16715527343750236
aF0.1671552734375024
aF0.16703027343750237
aF0.1670302734375024
aF0.1669052734375024
aF0.16690527343750242
aF0.1667802734375024
aF0.16678027343750243
aF0.16665527343750242
aF0.16653027343750243
aF0.16653027343750246
aF0.16640527343750244
aF0.16640527343750247
aF0.16628027343750246
aF0.16628027343750248
aF0.16615527343750247
aF0.1661552734375025
aF0.16603027343750248
aF0.1659052734375025
aF0.16590527343750253
aF0.1657802734375025
aF0.16578027343750254
aF0.16565527343750253
aF0.16565527343750255
aF0.16553027343750254
aF0.16540527343750255
aF0.16540527343750258
aF0.16528027343750257
aF0.1652802734375026
aF0.16515527343750258
aF0.1651552734375026
aF0.1650302734375026
aF0.1649052734375026
aF0.16490527343750264
aF0.16478027343750262
aF0.16478027343750265
aF0.16465527343750264
aF0.16453027343750265
aF0.16453027343750268
aF0.16440527343750266
aF0.1644052734375027
aF0.16428027343750268
aF0.1642802734375027
aF0.1641552734375027
aF0.1640302734375027
aF0.16403027343750273
aF0.16390527343750272
aF0.16390527343750275
aF0.16378027343750273
aF0.16365527343750275
aF0.16365527343750277
aF0.16353027343750276
aF0.1635302734375028
aF0.16340527343750277
aF0.1632802734375028
aF0.16328027343750282
aF0.1631552734375028
aF0.16315527343750283
aF0.16303027343750282
aF0.16290527343750283
aF0.16290527343750286
aF0.16278027343750284
aF0.16278027343750287
aF0.16265527343750286
aF0.16253027343750287
aF0.1625302734375029
aF0.16240527343750288
aF0.1624052734375029
aF0.1622802734375029
aF0.1621552734375029
aF0.16215527343750294
aF0.16203027343750293
aF0.16203027343750295
aF0.16190527343750294
aF0.16178027343750295
aF0.16178027343750298
aF0.16165527343750297
aF0.161655273437503
aF0.16153027343750298
aF0.161405273437503
aF0.16140527343750302
aF0.161280273437503
aF0.16115527343750302
aF0.16115527343750305
aF0.16103027343750304
aF0.16103027343750306
aF0.16090527343750305
aF0.16078027343750306
aF0.1607802734375031
aF0.16065527343750308
aF0.1605302734375031
aF0.16053027343750312
aF0.1604052734375031
aF0.16040527343750313
aF0.16028027343750312
aF0.16015527343750313
aF0.16015527343750316
aF0.16003027343750315
aF0.15990527343750316
aF0.1599052734375032
aF0.15978027343750317
aF0.1596552734375032
aF0.15965527343750321
aF0.1595302734375032
aF0.15953027343750323
aF0.15940527343750321
aF0.15928027343750323
aF0.15928027343750326
aF0.15915527343750324
aF0.15903027343750326
aF0.15903027343750328
aF0.15890527343750327
aF0.15878027343750328
aF0.1587802734375033
aF0.1586552734375033
aF0.1585302734375033
aF0.15853027343750334
aF0.15840527343750332
aF0.15828027343750334
aF0.15828027343750337
aF0.15815527343750335
aF0.15803027343750337
aF0.1580302734375034
aF0.15790527343750338
aF0.1577802734375034
aF0.15778027343750342
aF0.1576552734375034
aF0.15753027343750342
aF0.15753027343750345
aF0.15740527343750343
aF0.15728027343750345
aF0.15728027343750348
aF0.15715527343750346
aF0.15703027343750348
aF0.1570302734375035
aF0.1569052734375035
aF0.1567802734375035
aF0.15678027343750353
aF0.15665527343750352
aF0.15653027343750353
aF0.15653027343750356
aF0.15640527343750354
aF0.15628027343750356
aF0.1562802734375036
aF0.15615527343750357
aF0.15603027343750359
aF0.1559052734375036
aF0.15590527343750363
aF0.1557802734375036
aF0.15565527343750363
aF0.15565527343750366
aF0.15553027343750364
aF0.15540527343750365
aF0.15540527343750368
aF0.15528027343750367
aF0.15515527343750368
aF0.1551552734375037
aF0.1550302734375037
aF0.1549052734375037
aF0.15478027343750372
aF0.15478027343750375
aF0.15465527343750374
aF0.15453027343750375
aF0.15453027343750378
aF0.15440527343750376
aF0.15428027343750378
aF0.1541552734375038
aF0.15415527343750382
aF0.1540302734375038
aF0.15390527343750382
aF0.15390527343750385
aF0.15378027343750383
aF0.15365527343750385
aF0.15353027343750386
aF0.1535302734375039
aF0.15340527343750388
aF0.1532802734375039
aF0.1531552734375039
aF0.15315527343750393
aF0.15303027343750392
aF0.15290527343750393
aF0.15278027343750394
aF0.15278027343750397
aF0.15265527343750396
aF0.15253027343750397
aF0.15240527343750399
aF0.152405273437504
aF0.152280273437504
aF0.152155273437504
aF0.15203027343750403
aF0.15203027343750405
aF0.15190527343750404
aF0.15178027343750405
aF0.15165527343750407
aF0.1516552734375041
aF0.15153027343750408
aF0.1514052734375041
aF0.1512802734375041
aF0.15128027343750414
aF0.15115527343750412
aF0.15103027343750414
aF0.15090527343750415
aF0.15090527343750418
aF0.15078027343750416
aF0.15065527343750418
aF0.1505302734375042
aF0.1504052734375042
aF0.15040527343750423
aF0.15028027343750422
aF0.15015527343750423
aF0.15003027343750425
aF0.15003027343750427
aF0.14990527343750426
aF0.14978027343750427
aF0.1496552734375043
aF0.1495302734375043
aF0.14953027343750433
aF0.14940527343750432
aF0.14928027343750433
aF0.14915527343750434
aF0.14903027343750436
aF0.14903027343750438
aF0.14890527343750437
aF0.14878027343750438
aF0.1486552734375044
aF0.1485302734375044
aF0.14853027343750444
aF0.14840527343750443
aF0.14828027343750444
aF0.14815527343750445
aF0.14803027343750447
aF0.14790527343750448
aF0.1479052734375045
aF0.1477802734375045
aF0.1476552734375045
aF0.14753027343750452
aF0.14740527343750454
aF0.14728027343750455
aF0.14728027343750458
aF0.14715527343750456
aF0.14703027343750458
aF0.1469052734375046
aF0.1467802734375046
aF0.14665527343750462
aF0.14653027343750463
aF0.14653027343750466
aF0.14640527343750465
aF0.14628027343750466
aF0.14615527343750467
aF0.1460302734375047
aF0.1459052734375047
aF0.14578027343750471
aF0.14578027343750474
aF0.14565527343750473
aF0.14553027343750474
aF0.14540527343750476
aF0.14528027343750477
aF0.14515527343750478
aF0.1450302734375048
aF0.1449052734375048
aF0.14490527343750484
aF0.14478027343750483
aF0.14465527343750484
aF0.14453027343750485
aF0.14440527343750487
aF0.14428027343750488
aF0.1441552734375049
aF0.1440302734375049
aF0.14390527343750492
aF0.14378027343750494
aF0.14378027343750496
aF0.14365527343750495
aF0.14353027343750496
aF0.14340527343750498
aF0.143280273437505
aF0.143155273437505
aF0.14303027343750502
aF0.14290527343750503
aF0.14278027343750505
aF0.14265527343750506
aF0.14253027343750507
aF0.1424052734375051
aF0.1422802734375051
aF0.14215527343750511
aF0.14203027343750513
aF0.14203027343750516
aF0.14190527343750514
aF0.14178027343750516
aF0.14165527343750517
aF0.14153027343750518
aF0.1414052734375052
aF0.1412802734375052
aF0.14115527343750522
aF0.14103027343750524
aF0.14090527343750525
aF0.14078027343750527
aF0.14065527343750528
aF0.1405302734375053
aF0.1404052734375053
aF0.14028027343750532
aF0.14015527343750533
aF0.14003027343750535
aF0.13990527343750536
aF0.13978027343750538
aF0.1396552734375054
aF0.1395302734375054
aF0.13940527343750542
aF0.13928027343750543
aF0.13915527343750544
aF0.13903027343750546
aF0.13890527343750547
aF0.13878027343750549
aF0.1386552734375055
aF0.1385302734375055
aF0.13840527343750553
aF0.13815527343750555
aF0.13803027343750554
aF0.13790527343750553
aF0.13778027343750554
aF0.13765527343750555
aF0.13753027343750557
aF0.13740527343750558
aF0.1372802734375056
aF0.1371552734375056
aF0.13703027343750562
aF0.13690527343750564
aF0.13678027343750565
aF0.13665527343750566
aF0.1364052734375057
aF0.13628027343750568
aF0.13615527343750566
aF0.13603027343750568
aF0.1359052734375057
aF0.1357802734375057
aF0.13565527343750572
aF0.13553027343750573
aF0.13540527343750575
aF0.13515527343750577
aF0.13503027343750576
aF0.13490527343750575
aF0.13478027343750576
aF0.13465527343750577
aF0.1345302734375058
aF0.1344052734375058
aF0.13415527343750583
aF0.13403027343750581
aF0.1339052734375058
aF0.13378027343750581
aF0.13365527343750583
aF0.13340527343750586
aF0.13328027343750584
aF0.13315527343750583
aF0.13303027343750584
aF0.13290527343750586
aF0.13265527343750588
aF0.13253027343750587
aF0.13240527343750585
aF0.13228027343750587
aF0.1320302734375059
aF0.13190527343750588
aF0.13178027343750587
aF0.13165527343750588
aF0.1314052734375059
aF0.1312802734375059
aF0.13115527343750588
aF0.1310302734375059
aF0.13078027343750592
aF0.1306552734375059
aF0.1305302734375059
aF0.13028027343750592
aF0.1301552734375059
aF0.1300302734375059
aF0.1299052734375059
aF0.12965527343750594
aF0.12953027343750592
aF0.1294052734375059
aF0.12915527343750594
aF0.12903027343750592
aF0.12878027343750592
aF0.1286552734375059
aF0.1285302734375059
aF0.12828027343750592
aF0.1281552734375059
aF0.1280302734375059
aF0.12778027343750592
aF0.1276552734375059
aF0.1274052734375059
aF0.1272802734375059
aF0.12715527343750588
aF0.1269052734375059
aF0.1267802734375059
aF0.1265302734375059
aF0.12640527343750588
aF0.12615527343750588
aF0.12603027343750586
aF0.12578027343750586
aF0.12565527343750585
aF0.12540527343750585
aF0.12528027343750583
aF0.12503027343750583
aF0.12490527343750582
aF0.12465527343750582
aF0.12453027343750583
aF0.12428027343750583
aF0.12415527343750582
aF0.12390527343750582
aF0.12365527343750582
aF0.12353027343750583
aF0.12328027343750583
aF0.12315527343750582
aF0.12290527343750582
aF0.12265527343750582
aF0.12253027343750583
aF0.12228027343750583
aF0.12203027343750583
aF0.12190527343750582
aF0.12165527343750582
aF0.12140527343750582
aF0.12128027343750583
aF0.12103027343750583
aF0.12078027343750583
aF0.12065527343750582
aF0.12040527343750582
aF0.12015527343750582
aF0.11990527343750582
aF0.11965527343750582
aF0.11953027343750583
aF0.11928027343750583
aF0.11903027343750583
aF0.11878027343750583
aF0.11853027343750583
aF0.11840527343750581
aF0.11815527343750581
aF0.11790527343750581
aF0.11765527343750581
aF0.11740527343750581
aF0.11715527343750581
aF0.11690527343750581
aF0.11665527343750581
aF0.11640527343750581
aF0.11615527343750581
aF0.11590527343750581
aF0.11565527343750581
aF0.11540527343750581
aF0.11515527343750581
aF0.11490527343750581
aF0.11465527343750581
aF0.11440527343750581
aF0.11415527343750581
aF0.11390527343750581
aF0.11353027343750582
aF0.11328027343750582
aF0.11303027343750582
aF0.11278027343750582
aF0.11253027343750582
aF0.11215527343750581
aF0.11190527343750581
aF0.11165527343750581
aF0.11128027343750582
aF0.11103027343750582
aF0.11078027343750582
aF0.11040527343750581
aF0.11015527343750581
aF0.10990527343750581
aF0.10953027343750582
aF0.10928027343750582
aF0.1089052734375058
aF0.1086552734375058
aF0.10828027343750582
aF0.10803027343750582
aF0.1076552734375058
aF0.10728027343750582
aF0.10703027343750582
aF0.1066552734375058
aF0.10628027343750582
aF0.10603027343750582
aF0.1056552734375058
aF0.10528027343750582
aF0.1049052734375058
aF0.10453027343750582
aF0.1041552734375058
aF0.10378027343750582
aF0.1034052734375058
aF0.10303027343750581
aF0.1026552734375058
aF0.10228027343750581
aF0.1019052734375058
aF0.10153027343750581
aF0.1011552734375058
aF0.10078027343750581
aF0.10035037708283048
aF0.09995838342235068
aF0.09956792098710712
aF0.09917898379575124
aF0.09859766684046534
aF0.0982571163653822
aF0.0978395401135981
aF0.09726607402845913
aF0.09692421421924424
aF0.09632371910251114
aF0.09598093269061586
aF0.09538688578745735
aF0.0950431782021943
aF0.09445554173010898
aF0.09408675616991102
aF0.09353528624618145
aF0.09298722792833272
aF0.09244238088969015
aF0.09190072631416463
aF0.09136224549591757
aF0.09082691983871494
aF0.09029473085528496
aF0.08976566016667978
aF0.08923968950164063
aF0.08854233304464745
aF0.08802370069052973
aF0.08733584648140177
aF0.08682428106289541
aF0.08614579962306601
aF0.08547278556351082
aF0.08480502942629589
aF0.08414249013390296
aF0.08348512692973184
aF0.08283289937559332
aF0.08218576734922149
aF0.081383013818078
aF0.08074736593397555
aF0.07995866205951269
aF0.07917781575033778
aF0.07840459489340088
aF0.07763892502139501
aF0.07688073239423296
aF0.07597963808080643
aF0.07508925169704697
aF0.0742092995287222
aF0.07333965929986999
aF0.07248021016744964
aF0.07148912977140534
aF0.0705117393253119
aF0.06954771163922367
aF0.06859686401915616
aF0.06752490523565563
aF0.0664698285913485
aF0.06543123751960869
aF0.06428095214054778
aF0.06315101352870223
aF0.06191747256753738
aF0.06070814693145267
aF0.05940375212127062
aF0.05812749963429019
aF0.05676502294475565
aF0.05532361255388336
aF0.05391891145388241
aF0.05244446059155961
aF0.0509078988398526
aF0.049267162060542304
aF0.04772756324615035
aF0.04604926446281034
aF0.04425010020170077
aF0.04234837666801959
aF0.04036295822265431
aF0.03847094455596739
aF0.03636644762103655
aF0.03423530696803747
aF0.03196131255786028
aF0.029588660416080572
aF0.02704515184156466
aF0.024403345069567605
aF0.021685842689345793
aF0.01880345266779247
aF0.015863419044006902
aF0.012637703456424683
aF0.00922731334572387
aF0.005610491767166446
aF0.0018648509567002107
aF6.105166822530451e-05
aF3.0525834112652256e-05
aF1.5262917056326128e-05
aF7.631458528163064e-06
aF3.815729264081532e-06
aF1.907864632040766e-06
aF9.53932316020383e-07
aF4.769661580101915e-07
aF2.3848307900509575e-07
aF1.1924153950254788e-07
aF5.962076975127394e-08
aF2.981038487563697e-08
aI0
aI0
aI0
aI0
aI0
aI0
aI0
aI0
aI0
aI0
aI0
aI0
aI0
aI0
aI0
aI0
aI0
aI0
aI0
aI0
aI0
aI0
aI0
aI0
aI0
aI0
aI0
aI0
aI0
aI0
aI0
aI0
aI0
aI0
aI0
a.