(lp0
F0.18121337890625
aF0.1812119140625
aF0.1810869140625
aF0.18108691406250002
aF0.18108691406250002
aF0.1809619140625
aF0.18096191406250003
aF0.18083691406250002
aF0.18083691406250005
aF0.18071191406250003
aF0.18071191406250006
aF0.18071191406250006
aF0.18058691406250005
aF0.18058691406250008
aF0.18046191406250006
aF0.1804619140625001
aF0.1804619140625001
aF0.18033691406250008
aF0.1803369140625001
aF0.1802119140625001
aF0.18021191406250012
aF0.1800869140625001
aF0.18008691406250013
aF0.18008691406250013
aF0.17996191406250012
aF0.17996191406250014
aF0.17983691406250013
aF0.17983691406250016
aF0.17983691406250016
aF0.17971191406250014
aF0.17971191406250017
aF0.17958691406250016
aF0.17958691406250019
aF0.17946191406250017
aF0.1794619140625002
aF0.1794619140625002
aF0.17933691406250019
aF0.1793369140625002
aF0.1792119140625002
aF0.17921191406250023
aF0.1790869140625002
aF0.17908691406250024
aF0.17908691406250024
aF0.17896191406250023
aF0.17896191406250025
aF0.17883691406250024
aF0.17883691406250027
aF0.17871191406250025
aF0.17871191406250028
aF0.17871191406250028
aF0.17858691406250027
aF0.1785869140625003
aF0.17846191406250028
aF0.1784619140625003
aF0.1783369140625003
aF0.17833691406250032
aF0.17833691406250032
aF0.1782119140625003
aF0.17821191406250034
aF0.17808691406250032
aF0.17808691406250035
aF0.17796191406250034
aF0.17796191406250036
aF0.17796191406250036
aF0.17783691406250035
aF0.17783691406250038
aF0.17771191406250036
aF0.1777119140625004
aF0.17758691406250038
aF0.1775869140625004
aF0.1775869140625004
aF0.1774619140625004
aF0.17746191406250042
aF0.1773369140625004
aF0.17733691406250043
aF0.17721191406250042
aF0.17721191406250045
aF0.17721191406250045
aF0.17708691406250043
aF0.17708691406250046
aF0.17696191406250045
aF0.17696191406250047
aF0.17683691406250046
aF0.1768369140625005
aF0.17671191406250047
aF0.1767119140625005
aF0.1767119140625005
aF0.1765869140625005
aF0.17658691406250052
aF0.1764619140625005
aF0.17646191406250053
aF0.17633691406250052
aF0.17633691406250054
aF0.17621191406250053
aF0.17621191406250056
aF0.17621191406250056
aF0.17608691406250054
aF0.17608691406250057
aF0.17596191406250056
aF0.17596191406250059
aF0.17583691406250057
aF0.1758369140625006
aF0.17571191406250058
aF0.1757119140625006
aF0.1757119140625006
aF0.1755869140625006
aF0.17558691406250063
aF0.1754619140625006
aF0.17546191406250064
aF0.17533691406250063
aF0.17533691406250065
aF0.17521191406250064
aF0.17521191406250067
aF0.17508691406250065
aF0.17508691406250068
aF0.17508691406250068
aF0.17496191406250067
aF0.1749619140625007
aF0.17483691406250068
aF0.1748369140625007
aF0.1747119140625007
aF0.17471191406250072
aF0.1745869140625007
aF0.17458691406250074
aF0.17446191406250072
aF0.17446191406250075
aF0.17446191406250075
aF0.17433691406250074
aF0.17433691406250076
aF0.17421191406250075
aF0.17421191406250078
aF0.17408691406250076
aF0.1740869140625008
aF0.17396191406250078
aF0.1739619140625008
aF0.1738369140625008
aF0.17383691406250082
aF0.1737119140625008
aF0.17371191406250083
aF0.17371191406250083
aF0.17358691406250082
aF0.17358691406250085
aF0.17346191406250083
aF0.17346191406250086
aF0.17333691406250085
aF0.17333691406250087
aF0.17321191406250086
aF0.1732119140625009
aF0.17308691406250087
aF0.1730869140625009
aF0.1729619140625009
aF0.17296191406250092
aF0.1728369140625009
aF0.17283691406250093
aF0.17283691406250093
aF0.17271191406250092
aF0.17271191406250094
aF0.17258691406250093
aF0.17258691406250096
aF0.17246191406250094
aF0.17246191406250097
aF0.17233691406250096
aF0.17233691406250098
aF0.17221191406250097
aF0.172211914062501
aF0.17208691406250098
aF0.172086914062501
aF0.171961914062501
aF0.17196191406250103
aF0.171836914062501
aF0.17183691406250104
aF0.17171191406250103
aF0.17171191406250105
aF0.17171191406250105
aF0.17158691406250104
aF0.17158691406250107
aF0.17146191406250105
aF0.17146191406250108
aF0.17133691406250107
aF0.1713369140625011
aF0.17121191406250108
aF0.1712119140625011
aF0.1710869140625011
aF0.17108691406250112
aF0.1709619140625011
aF0.17096191406250114
aF0.17083691406250112
aF0.17083691406250115
aF0.17071191406250114
aF0.17071191406250116
aF0.17058691406250115
aF0.17058691406250118
aF0.17046191406250116
aF0.1704619140625012
aF0.17033691406250118
aF0.1703369140625012
aF0.1702119140625012
aF0.17021191406250122
aF0.1700869140625012
aF0.17008691406250123
aF0.16996191406250122
aF0.16996191406250125
aF0.16983691406250123
aF0.16983691406250126
aF0.16971191406250125
aF0.16971191406250127
aF0.16958691406250126
aF0.1695869140625013
aF0.16946191406250127
aF0.1694619140625013
aF0.1693369140625013
aF0.16933691406250131
aF0.1692119140625013
aF0.16921191406250133
aF0.16908691406250131
aF0.16908691406250134
aF0.16896191406250133
aF0.16896191406250136
aF0.16883691406250134
aF0.16883691406250137
aF0.16871191406250136
aF0.16871191406250138
aF0.16858691406250137
aF0.1685869140625014
aF0.16846191406250138
aF0.1684619140625014
aF0.1683369140625014
aF0.16833691406250142
aF0.1682119140625014
aF0.16821191406250144
aF0.16808691406250142
aF0.16808691406250145
aF0.16796191406250144
aF0.16796191406250147
aF0.16783691406250145
aF0.16783691406250148
aF0.16771191406250147
aF0.1677119140625015
aF0.16758691406250148
aF0.1675869140625015
aF0.1674619140625015
aF0.16746191406250152
aF0.1673369140625015
aF0.16733691406250153
aF0.16721191406250152
aF0.16721191406250155
aF0.16708691406250153
aF0.16708691406250156
aF0.16696191406250155
aF0.16696191406250158
aF0.16683691406250156
aF0.16671191406250158
aF0.1667119140625016
aF0.1665869140625016
aF0.16658691406250162
aF0.1664619140625016
aF0.16646191406250163
aF0.16633691406250162
aF0.16633691406250165
aF0.16621191406250163
aF0.16621191406250166
aF0.16608691406250164
aF0.16608691406250167
aF0.16596191406250166
aF0.1659619140625017
aF0.16583691406250167
aF0.1658369140625017
aF0.1657119140625017
aF0.1655869140625017
aF0.16558691406250173
aF0.1654619140625017
aF0.16546191406250174
aF0.16533691406250173
aF0.16533691406250176
aF0.16521191406250174
aF0.16521191406250177
aF0.16508691406250176
aF0.16508691406250178
aF0.16496191406250177
aF0.1649619140625018
aF0.16483691406250178
aF0.1647119140625018
aF0.16471191406250182
aF0.1645869140625018
aF0.16458691406250184
aF0.16446191406250182
aF0.16446191406250185
aF0.16433691406250184
aF0.16433691406250187
aF0.16421191406250185
aF0.16421191406250188
aF0.16408691406250187
aF0.16396191406250188
aF0.1639619140625019
aF0.1638369140625019
aF0.16383691406250192
aF0.1637119140625019
aF0.16371191406250193
aF0.16358691406250192
aF0.16358691406250195
aF0.16346191406250193
aF0.16346191406250196
aF0.16333691406250195
aF0.16321191406250196
aF0.163211914062502
aF0.16308691406250198
aF0.163086914062502
aF0.162961914062502
aF0.16296191406250202
aF0.162836914062502
aF0.16271191406250202
aF0.16271191406250204
aF0.16258691406250203
aF0.16258691406250206
aF0.16246191406250204
aF0.16246191406250207
aF0.16233691406250206
aF0.16233691406250209
aF0.16221191406250207
aF0.16208691406250209
aF0.1620869140625021
aF0.1619619140625021
aF0.16196191406250213
aF0.1618369140625021
aF0.16183691406250214
aF0.16171191406250213
aF0.16158691406250214
aF0.16158691406250217
aF0.16146191406250215
aF0.16146191406250218
aF0.16133691406250217
aF0.16121191406250218
aF0.1612119140625022
aF0.1610869140625022
aF0.16108691406250222
aF0.1609619140625022
aF0.16096191406250224
aF0.16083691406250222
aF0.16071191406250224
aF0.16071191406250226
aF0.16058691406250225
aF0.16058691406250228
aF0.16046191406250226
aF0.16033691406250228
aF0.1603369140625023
aF0.1602119140625023
aF0.16021191406250232
aF0.1600869140625023
aF0.16008691406250233
aF0.15996191406250232
aF0.15983691406250233
aF0.15983691406250236
aF0.15971191406250235
aF0.15971191406250237
aF0.15958691406250236
aF0.15946191406250237
aF0.1594619140625024
aF0.1593369140625024
aF0.15933691406250242
aF0.1592119140625024
aF0.15908691406250242
aF0.15908691406250244
aF0.15896191406250243
aF0.15896191406250246
aF0.15883691406250244
aF0.15871191406250246
aF0.15871191406250248
aF0.15858691406250247
aF0.1585869140625025
aF0.15846191406250248
aF0.1583369140625025
aF0.15833691406250253
aF0.1582119140625025
aF0.15808691406250253
aF0.15808691406250255
aF0.15796191406250254
aF0.15796191406250257
aF0.15783691406250255
aF0.15771191406250257
aF0.1577119140625026
aF0.15758691406250258
aF0.1575869140625026
aF0.1574619140625026
aF0.1573369140625026
aF0.15733691406250264
aF0.15721191406250262
aF0.15708691406250264
aF0.15708691406250266
aF0.15696191406250265
aF0.15683691406250266
aF0.1568369140625027
aF0.15671191406250268
aF0.1567119140625027
aF0.1565869140625027
aF0.1564619140625027
aF0.15646191406250273
aF0.15633691406250272
aF0.15621191406250273
aF0.15621191406250276
aF0.15608691406250275
aF0.15608691406250277
aF0.15596191406250276
aF0.15583691406250277
aF0.1558369140625028
aF0.1557119140625028
aF0.1555869140625028
aF0.15558691406250283
aF0.15546191406250282
aF0.15533691406250283
aF0.15533691406250286
aF0.15521191406250284
aF0.15508691406250286
aF0.15508691406250288
aF0.15496191406250287
aF0.15483691406250288
aF0.1548369140625029
aF0.1547119140625029
aF0.1545869140625029
aF0.15458691406250294
aF0.15446191406250293
aF0.15433691406250294
aF0.15433691406250297
aF0.15421191406250295
aF0.15408691406250297
aF0.154086914062503
aF0.15396191406250298
aF0.153836914062503
aF0.15383691406250302
aF0.153711914062503
aF0.15358691406250302
aF0.15358691406250305
aF0.15346191406250304
aF0.15333691406250305
aF0.15333691406250308
aF0.15321191406250306
aF0.15308691406250308
aF0.1530869140625031
aF0.1529619140625031
aF0.1528369140625031
aF0.15283691406250313
aF0.15271191406250312
aF0.15258691406250313
aF0.15258691406250316
aF0.15246191406250315
aF0.15233691406250316
aF0.1523369140625032
aF0.15221191406250317
aF0.1520869140625032
aF0.1519619140625032
aF0.15196191406250323
aF0.15183691406250321
aF0.15171191406250323
aF0.15171191406250326
aF0.15158691406250324
aF0.15146191406250326
aF0.15146191406250328
aF0.15133691406250327
aF0.15121191406250328
aF0.1510869140625033
aF0.15108691406250332
aF0.1509619140625033
aF0.15083691406250332
aF0.15083691406250335
aF0.15071191406250334
aF0.15058691406250335
aF0.15046191406250337
aF0.1504619140625034
aF0.15033691406250338
aF0.1502119140625034
aF0.1500869140625034
aF0.15008691406250343
aF0.14996191406250342
aF0.14983691406250343
aF0.14983691406250346
aF0.14971191406250345
aF0.14958691406250346
aF0.14946191406250348
aF0.1494619140625035
aF0.1493369140625035
aF0.1492119140625035
aF0.14908691406250352
aF0.14908691406250354
aF0.14896191406250353
aF0.14883691406250354
aF0.14871191406250356
aF0.1487119140625036
aF0.14858691406250357
aF0.14846191406250359
aF0.1483369140625036
aF0.14833691406250363
aF0.1482119140625036
aF0.14808691406250363
aF0.14796191406250364
aF0.14796191406250367
aF0.14783691406250365
aF0.14771191406250367
aF0.14758691406250368
aF0.1475869140625037
aF0.1474619140625037
aF0.1473369140625037
aF0.14721191406250372
aF0.14708691406250374
aF0.14708691406250377
aF0.14696191406250375
aF0.14683691406250376
aF0.14671191406250378
aF0.1467119140625038
aF0.1465869140625038
aF0.1464619140625038
aF0.14633691406250382
aF0.14621191406250383
aF0.14621191406250386
aF0.14608691406250385
aF0.14596191406250386
aF0.14583691406250388
aF0.1457119140625039
aF0.14571191406250392
aF0.1455869140625039
aF0.14546191406250392
aF0.14533691406250393
aF0.14521191406250394
aF0.14521191406250397
aF0.14508691406250396
aF0.14496191406250397
aF0.14483691406250399
aF0.144711914062504
aF0.144586914062504
aF0.14458691406250404
aF0.14446191406250403
aF0.14433691406250404
aF0.14421191406250405
aF0.14408691406250407
aF0.1440869140625041
aF0.14396191406250408
aF0.1438369140625041
aF0.1437119140625041
aF0.14358691406250412
aF0.14346191406250414
aF0.14333691406250415
aF0.14333691406250418
aF0.14321191406250416
aF0.14308691406250418
aF0.1429619140625042
aF0.1428369140625042
aF0.14271191406250422
aF0.14258691406250423
aF0.14258691406250426
aF0.14246191406250425
aF0.14233691406250426
aF0.14221191406250427
aF0.1420869140625043
aF0.1419619140625043
aF0.14183691406250432
aF0.14171191406250433
aF0.14171191406250436
aF0.14158691406250434
aF0.14146191406250436
aF0.14133691406250437
aF0.14121191406250438
aF0.1410869140625044
aF0.1409619140625044
aF0.14083691406250443
aF0.14071191406250444
aF0.14071191406250447
aF0.14058691406250445
aF0.14046191406250447
aF0.14033691406250448
aF0.1402119140625045
aF0.1400869140625045
aF0.13996191406250452
aF0.13983691406250454
aF0.13971191406250455
aF0.13958691406250456
aF0.13946191406250458
aF0.1393369140625046
aF0.1392119140625046
aF0.13908691406250462
aF0.13896191406250463
aF0.13896191406250466
aF0.13883691406250465
aF0.13871191406250466
aF0.13858691406250467
aF0.1384619140625047
aF0.1383369140625047
aF0.13821191406250471
aF0.13808691406250473
aF0.13796191406250474
aF0.13783691406250476
aF0.13771191406250477
aF0.13758691406250478
aF0.1374619140625048
aF0.1373369140625048
aF0.13721191406250483
aF0.13708691406250484
aF0.13696191406250485
aF0.13683691406250487
aF0.13671191406250488
aF0.1365869140625049
aF0.1364619140625049
aF0.13633691406250492
aF0.13621191406250494
aF0.13608691406250495
aF0.13596191406250496
aF0.13583691406250498
aF0.135711914062505
aF0.135586914062505
aF0.13546191406250502
aF0.13533691406250503
aF0.13521191406250505
aF0.13496191406250507
aF0.13483691406250506
aF0.13471191406250504
aF0.13458691406250506
aF0.13446191406250507
aF0.1343369140625051
aF0.1342119140625051
aF0.1340869140625051
aF0.13396191406250513
aF0.13383691406250514
aF0.13371191406250515
aF0.13358691406250517
aF0.1333369140625052
aF0.13321191406250518
aF0.13308691406250517
aF0.13296191406250518
aF0.1328369140625052
aF0.1327119140625052
aF0.13258691406250522
aF0.13246191406250524
aF0.13221191406250526
aF0.13208691406250525
aF0.13196191406250524
aF0.13183691406250525
aF0.13171191406250526
aF0.13158691406250528
aF0.1313369140625053
aF0.1312119140625053
aF0.13108691406250528
aF0.1309619140625053
aF0.1308369140625053
aF0.13058691406250533
aF0.13046191406250532
aF0.1303369140625053
aF0.13021191406250532
aF0.13008691406250533
aF0.12983691406250536
aF0.12971191406250535
aF0.12958691406250533
aF0.12946191406250535
aF0.12921191406250537
aF0.12908691406250536
aF0.12896191406250535
aF0.12883691406250536
aF0.1285869140625054
aF0.12846191406250537
aF0.12833691406250536
aF0.12808691406250539
aF0.12796191406250537
aF0.12783691406250536
aF0.12758691406250539
aF0.12746191406250537
aF0.12733691406250536
aF0.12708691406250539
aF0.12696191406250537
aF0.12683691406250536
aF0.12658691406250538
aF0.12646191406250537
aF0.12621191406250537
aF0.12608691406250536
aF0.12596191406250534
aF0.12571191406250537
aF0.12558691406250536
aF0.12533691406250536
aF0.12521191406250534
aF0.12508691406250533
aF0.12483691406250536
aF0.12471191406250534
aF0.12446191406250534
aF0.12433691406250535
aF0.12408691406250535
aF0.12396191406250534
aF0.12371191406250534
aF0.12358691406250535
aF0.12333691406250535
aF0.12321191406250534
aF0.12296191406250534
aF0.12271191406250534
aF0.12258691406250535
aF0.12233691406250535
aF0.12221191406250534
aF0.12196191406250534
aF0.12171191406250534
aF0.12158691406250535
aF0.12133691406250535
aF0.12108691406250535
aF0.12096191406250534
aF0.12071191406250534
aF0.12046191406250534
aF0.12033691406250535
aF0.12008691406250535
aF0.11983691406250535
aF0.11958691406250535
aF0.11946191406250534
aF0.11921191406250534
aF0.11896191406250534
aF0.11871191406250534
aF0.11846191406250534
aF0.11821191406250534
aF0.11796191406250534
aF0.11783691406250535
aF0.11758691406250535
aF0.11733691406250535
aF0.11708691406250535
aF0.11683691406250535
aF0.11658691406250535
aF0.11633691406250535
aF0.11608691406250535
aF0.11583691406250535
aF0.11558691406250535
aF0.11521191406250533
aF0.11496191406250533
aF0.11471191406250533
aF0.11446191406250533
aF0.11421191406250533
aF0.11396191406250533
aF0.11358691406250535
aF0.11333691406250535
aF0.11308691406250534
aF0.11271191406250533
aF0.11246191406250533
aF0.11221191406250533
aF0.11183691406250534
aF0.11158691406250534
aF0.11121191406250533
aF0.11096191406250533
aF0.11058691406250534
aF0.11033691406250534
aF0.10996191406250533
aF0.10958691406250534
aF0.10933691406250534
aF0.10896191406250533
aF0.10858691406250534
aF0.10821191406250533
aF0.10783691406250534
aF0.10746191406250533
aF0.10708691406250534
aF0.10671191406250533
aF0.10633691406250534
aF0.10596191406250532
aF0.10558691406250534
aF0.10518513441086347
aF0.10477425497957102
aF0.1042626117568996
aF0.10387629615147834
aF0.10338053113308662
aF0.10299378249839494
aF0.10250275754356958
aF0.10200225579775138
aF0.10161483054286563
aF0.10098227066610777
aF0.10058800260543568
aF0.09999842697988479
aF0.09960800016916294
aF0.09902416862376515
aF0.09844394888573527
aF0.09786712887273293
aF0.09729368866449425
aF0.09672360845747571
aF0.09596776951094667
aF0.09540564302851262
aF0.09484662558889244
aF0.09410545417572641
aF0.09337025531497854
aF0.09264080019533028
aF0.09191704394380426
aF0.09119894203799328
aF0.09030815187907845
aF0.08960279356207809
aF0.08872759386202977
aF0.0878611134532209
aF0.0868313216284235
aF0.0859835272503517
aF0.08497574200896843
aF0.08381380012373049
aF0.08283176939221076
aF0.08153720295431088
aF0.08042259465300211
aF0.07916583593723758
aF0.0777740954314517
aF0.0764069726601957
aF0.07491450048550735
aF0.0733048633843945
aF0.0717299542101204
aF0.06990840592628565
aF0.06799671100103133
aF0.0660044863849796
aF0.06381267152542047
aF0.06144437112733602
aF0.05892394817065931
aF0.056161536155706224
aF0.05308975213488211
aF0.04977121370847002
aF0.046222614399484996
aF0.04206790078611024
aF0.03746495717271066
aF0.032487212691212804
aF0.02664622910298421
aF0.019980200316536953
aF0.012128972777010031
aF0.0029564371143961953
aF9.536893917407081e-05
aF4.768446958703541e-05
aF2.3842234793517704e-05
aF1.1921117396758852e-05
aF5.960558698379426e-06
aF2.980279349189713e-06
aF1.4901396745948565e-06
aF7.450698372974282e-07
aF3.725349186487141e-07
aF1.8626745932435706e-07
aF9.313372966217853e-08
aF4.6566864831089265e-08
aI0
aI0
aI0
aI0
aI0
aI0
aI0
aI0
aI0
aI0
aI0
aI0
aI0
aI0
aI0
aI0
aI0
aI0
aI0
aI0
aI0
aI0
aI0
aI0
aI0
aI0
aI0
aI0
aI0
aI0
aI0
aI0
aI0
aI0
aI0
aI0
aI0
aI0
aI0
aI0
aI0
aI0
aI0
aI0
aI0
aI0
aI0
aI0
aI0
aI0
aI0
aI0
aI0
aI0
aI0
aI0
aI0
aI0
aI0
aI0
aI0
aI0
aI0
aI0
aI0
aI0
aI0
aI0
aI0
aI0
aI0
aI0
aI0
aI0
aI0
aI0
aI0
aI0
aI0
aI0
aI0
aI0
aI0
aI0
aI0
aI0
aI0
aI0
aI0
aI0
aI0
aI0
aI0
aI0
aI0
aI0
aI0
aI0
aI0
aI0
aI0
aI0
aI0
aI0
aI0
aI0
aI0
aI0
aI0
aI0
aI0
aI0
aI0
aI0
aI0
aI0
aI0
aI0
aI0
aI0
aI0
aI0
aI0
aI0
aI0
aI0
aI0
aI0
aI0
aI0
aI0
aI0
aI0
aI0
aI0
aI0
aI0
aI0
aI0
aI0
aI0
aI0
aI0
aI0
aI0
aI0
aI0
aI0
aI0
aI0
aI0
aI0
aI0
aI0
aI0
aI0
aI0
aI0
aI0
aI0
aI0
aI0
aI0
aI0
aI0
aI0
aI0
aI0
aI0
aI0
aI0
aI0
aI0
aI0
aI0
aI0
aI0
a.