(lp0
F0.15789794921875
aF0.157896484375
aF0.157771484375
aF0.15777148437500002
aF0.157646484375
aF0.15764648437500003
aF0.15752148437500002
aF0.15752148437500005
aF0.15739648437500003
aF0.15739648437500006
aF0.15727148437500005
aF0.15727148437500008
aF0.15714648437500006
aF0.1571464843750001
aF0.15702148437500008
aF0.1570214843750001
aF0.1568964843750001
aF0.15689648437500012
aF0.1567714843750001
aF0.15677148437500013
aF0.15664648437500012
aF0.15652148437500013
aF0.15652148437500016
aF0.15639648437500014
aF0.15639648437500017
aF0.15627148437500016
aF0.15627148437500019
aF0.15614648437500017
aF0.1561464843750002
aF0.15602148437500019
aF0.1560214843750002
aF0.1558964843750002
aF0.15589648437500023
aF0.1557714843750002
aF0.15577148437500024
aF0.15564648437500023
aF0.15564648437500025
aF0.15552148437500024
aF0.15552148437500027
aF0.15539648437500025
aF0.15539648437500028
aF0.15527148437500027
aF0.15514648437500028
aF0.1551464843750003
aF0.1550214843750003
aF0.15502148437500032
aF0.1548964843750003
aF0.15489648437500034
aF0.15477148437500032
aF0.15477148437500035
aF0.15464648437500034
aF0.15464648437500036
aF0.15452148437500035
aF0.15452148437500038
aF0.15439648437500036
aF0.1543964843750004
aF0.15427148437500038
aF0.1541464843750004
aF0.15414648437500042
aF0.1540214843750004
aF0.15402148437500043
aF0.15389648437500042
aF0.15389648437500045
aF0.15377148437500043
aF0.15377148437500046
aF0.15364648437500045
aF0.15364648437500047
aF0.15352148437500046
aF0.1535214843750005
aF0.15339648437500047
aF0.1532714843750005
aF0.15327148437500052
aF0.1531464843750005
aF0.15314648437500053
aF0.15302148437500052
aF0.15302148437500054
aF0.15289648437500053
aF0.15289648437500056
aF0.15277148437500054
aF0.15264648437500056
aF0.15264648437500059
aF0.15252148437500057
aF0.1525214843750006
aF0.15239648437500058
aF0.1523964843750006
aF0.1522714843750006
aF0.15227148437500063
aF0.1521464843750006
aF0.15202148437500063
aF0.15202148437500065
aF0.15189648437500064
aF0.15189648437500067
aF0.15177148437500065
aF0.15177148437500068
aF0.15164648437500067
aF0.1516464843750007
aF0.15152148437500068
aF0.1513964843750007
aF0.15139648437500072
aF0.1512714843750007
aF0.15127148437500074
aF0.15114648437500072
aF0.15114648437500075
aF0.15102148437500074
aF0.15089648437500075
aF0.15089648437500078
aF0.15077148437500076
aF0.1507714843750008
aF0.15064648437500078
aF0.1506464843750008
aF0.1505214843750008
aF0.1503964843750008
aF0.15039648437500083
aF0.15027148437500082
aF0.15027148437500085
aF0.15014648437500083
aF0.15014648437500086
aF0.15002148437500085
aF0.14989648437500086
aF0.1498964843750009
aF0.14977148437500087
aF0.1497714843750009
aF0.1496464843750009
aF0.1495214843750009
aF0.14952148437500093
aF0.14939648437500092
aF0.14939648437500094
aF0.14927148437500093
aF0.14914648437500094
aF0.14914648437500097
aF0.14902148437500096
aF0.14902148437500098
aF0.14889648437500097
aF0.148896484375001
aF0.14877148437500098
aF0.148646484375001
aF0.14864648437500103
aF0.148521484375001
aF0.14852148437500104
aF0.14839648437500103
aF0.14827148437500104
aF0.14827148437500107
aF0.14814648437500105
aF0.14814648437500108
aF0.14802148437500107
aF0.14789648437500108
aF0.1478964843750011
aF0.1477714843750011
aF0.14777148437500112
aF0.1476464843750011
aF0.14752148437500112
aF0.14752148437500115
aF0.14739648437500114
aF0.14727148437500115
aF0.14727148437500118
aF0.14714648437500116
aF0.1471464843750012
aF0.14702148437500118
aF0.1468964843750012
aF0.14689648437500122
aF0.1467714843750012
aF0.14677148437500123
aF0.14664648437500122
aF0.14652148437500123
aF0.14652148437500126
aF0.14639648437500125
aF0.14627148437500126
aF0.1462714843750013
aF0.14614648437500127
aF0.1461464843750013
aF0.1460214843750013
aF0.1458964843750013
aF0.14589648437500133
aF0.14577148437500131
aF0.14564648437500133
aF0.14564648437500136
aF0.14552148437500134
aF0.14552148437500137
aF0.14539648437500136
aF0.14527148437500137
aF0.1452714843750014
aF0.14514648437500138
aF0.1450214843750014
aF0.14502148437500142
aF0.1448964843750014
aF0.14477148437500142
aF0.14477148437500145
aF0.14464648437500144
aF0.14464648437500147
aF0.14452148437500145
aF0.14439648437500147
aF0.1443964843750015
aF0.14427148437500148
aF0.1441464843750015
aF0.14414648437500152
aF0.1440214843750015
aF0.14389648437500152
aF0.14389648437500155
aF0.14377148437500153
aF0.14364648437500155
aF0.14364648437500158
aF0.14352148437500156
aF0.14339648437500158
aF0.1433964843750016
aF0.1432714843750016
aF0.1431464843750016
aF0.14314648437500163
aF0.14302148437500162
aF0.14289648437500163
aF0.14289648437500166
aF0.14277148437500164
aF0.14264648437500166
aF0.1426464843750017
aF0.14252148437500167
aF0.1423964843750017
aF0.14239648437500171
aF0.1422714843750017
aF0.1421464843750017
aF0.14214648437500174
aF0.14202148437500173
aF0.14189648437500174
aF0.14189648437500177
aF0.14177148437500176
aF0.14164648437500177
aF0.1416464843750018
aF0.14152148437500178
aF0.1413964843750018
aF0.14139648437500182
aF0.1412714843750018
aF0.14114648437500182
aF0.14114648437500185
aF0.14102148437500184
aF0.14089648437500185
aF0.14077148437500187
aF0.1407714843750019
aF0.14064648437500188
aF0.1405214843750019
aF0.14052148437500192
aF0.1403964843750019
aF0.14027148437500192
aF0.14027148437500195
aF0.14014648437500193
aF0.14002148437500195
aF0.13989648437500196
aF0.139896484375002
aF0.13977148437500198
aF0.139646484375002
aF0.13964648437500202
aF0.139521484375002
aF0.13939648437500202
aF0.13939648437500204
aF0.13927148437500203
aF0.13914648437500204
aF0.13902148437500206
aF0.13902148437500209
aF0.13889648437500207
aF0.13877148437500209
aF0.1386464843750021
aF0.13864648437500213
aF0.1385214843750021
aF0.13839648437500213
aF0.13839648437500215
aF0.13827148437500214
aF0.13814648437500215
aF0.13802148437500217
aF0.1380214843750022
aF0.13789648437500218
aF0.1377714843750022
aF0.1376464843750022
aF0.13764648437500224
aF0.13752148437500222
aF0.13739648437500224
aF0.13727148437500225
aF0.13727148437500228
aF0.13714648437500226
aF0.13702148437500228
aF0.1368964843750023
aF0.13689648437500232
aF0.1367714843750023
aF0.13664648437500232
aF0.13652148437500233
aF0.13652148437500236
aF0.13639648437500235
aF0.13627148437500236
aF0.13614648437500237
aF0.1361464843750024
aF0.1360214843750024
aF0.1358964843750024
aF0.13577148437500242
aF0.13564648437500243
aF0.13564648437500246
aF0.13552148437500244
aF0.13539648437500246
aF0.13527148437500247
aF0.1352714843750025
aF0.13514648437500248
aF0.1350214843750025
aF0.1348964843750025
aF0.13477148437500253
aF0.13477148437500255
aF0.13464648437500254
aF0.13452148437500255
aF0.13439648437500257
aF0.13427148437500258
aF0.1342714843750026
aF0.1341464843750026
aF0.1340214843750026
aF0.13389648437500262
aF0.13377148437500264
aF0.13377148437500266
aF0.13364648437500265
aF0.13352148437500266
aF0.13339648437500268
aF0.1332714843750027
aF0.13327148437500272
aF0.1331464843750027
aF0.13302148437500272
aF0.13289648437500273
aF0.13277148437500275
aF0.13264648437500276
aF0.1326464843750028
aF0.13252148437500277
aF0.1323964843750028
aF0.1322714843750028
aF0.13214648437500282
aF0.13202148437500283
aF0.13202148437500286
aF0.13189648437500284
aF0.13177148437500286
aF0.13164648437500287
aF0.13152148437500288
aF0.1313964843750029
aF0.1312714843750029
aF0.13127148437500294
aF0.13114648437500293
aF0.13102148437500294
aF0.13089648437500295
aF0.13077148437500297
aF0.13064648437500298
aF0.130521484375003
aF0.13052148437500302
aF0.130396484375003
aF0.13027148437500302
aF0.13014648437500304
aF0.13002148437500305
aF0.12989648437500306
aF0.12977148437500308
aF0.1296464843750031
aF0.12964648437500312
aF0.1295214843750031
aF0.12939648437500312
aF0.12927148437500313
aF0.12914648437500315
aF0.12902148437500316
aF0.12889648437500317
aF0.1287714843750032
aF0.1286464843750032
aF0.12852148437500321
aF0.12839648437500323
aF0.12839648437500326
aF0.12827148437500324
aF0.12814648437500326
aF0.12802148437500327
aF0.12789648437500328
aF0.1277714843750033
aF0.1276464843750033
aF0.12752148437500332
aF0.12739648437500334
aF0.12727148437500335
aF0.12714648437500337
aF0.12702148437500338
aF0.1268964843750034
aF0.1267714843750034
aF0.12664648437500342
aF0.12652148437500343
aF0.12639648437500345
aF0.12627148437500346
aF0.12614648437500348
aF0.1261464843750035
aF0.1260214843750035
aF0.1258964843750035
aF0.12577148437500352
aF0.12564648437500353
aF0.12552148437500354
aF0.12539648437500356
aF0.12527148437500357
aF0.12514648437500359
aF0.1250214843750036
aF0.12489648437500361
aF0.12477148437500363
aF0.12464648437500361
aF0.12452148437500363
aF0.12439648437500361
aF0.12414648437500361
aF0.12402148437500363
aF0.12389648437500361
aF0.12377148437500363
aF0.12364648437500361
aF0.12352148437500363
aF0.12339648437500361
aF0.12327148437500363
aF0.12314648437500361
aF0.12302148437500363
aF0.12289648437500361
aF0.12277148437500363
aF0.12264648437500361
aF0.12252148437500363
aF0.12239648437500361
aF0.12227148437500363
aF0.12214648437500361
aF0.12189648437500361
aF0.12177148437500362
aF0.12164648437500361
aF0.12152148437500362
aF0.12139648437500361
aF0.12127148437500362
aF0.12114648437500361
aF0.12102148437500362
aF0.12089648437500361
aF0.12064648437500361
aF0.12052148437500362
aF0.12039648437500361
aF0.12027148437500362
aF0.12014648437500361
aF0.12002148437500362
aF0.11989648437500361
aF0.11964648437500361
aF0.11952148437500362
aF0.11939648437500361
aF0.11927148437500362
aF0.11914648437500361
aF0.11889648437500361
aF0.11877148437500362
aF0.11864648437500361
aF0.11852148437500362
aF0.11839648437500361
aF0.11814648437500361
aF0.11802148437500362
aF0.11789648437500361
aF0.11777148437500362
aF0.11752148437500362
aF0.1173964843750036
aF0.11727148437500362
aF0.1171464843750036
aF0.1168964843750036
aF0.11677148437500362
aF0.1166464843750036
aF0.11652148437500362
aF0.11627148437500362
aF0.1161464843750036
aF0.11602148437500362
aF0.11577148437500362
aF0.1156464843750036
aF0.11552148437500362
aF0.11527148437500362
aF0.1151464843750036
aF0.11502148437500362
aF0.11477148437500362
aF0.1146464843750036
aF0.1143964843750036
aF0.11427148437500362
aF0.1141464843750036
aF0.1138964843750036
aF0.11377148437500362
aF0.11352148437500362
aF0.1133964843750036
aF0.11327148437500362
aF0.11302148437500362
aF0.1128964843750036
aF0.1126464843750036
aF0.11252148437500362
aF0.11227148437500362
aF0.1121464843750036
aF0.1118964843750036
aF0.11177148437500362
aF0.11152148437500362
aF0.1113964843750036
aF0.1111464843750036
aF0.1108964843750036
aF0.11077148437500361
aF0.11052148437500361
aF0.1103964843750036
aF0.1101464843750036
aF0.1098964843750036
aF0.10977148437500361
aF0.10952148437500361
aF0.10927148437500361
aF0.1091464843750036
aF0.1088964843750036
aF0.1086464843750036
aF0.1083964843750036
aF0.10827148437500361
aF0.10802148437500361
aF0.10777148437500361
aF0.10752148437500361
aF0.1073964843750036
aF0.1071464843750036
aF0.1068964843750036
aF0.1066464843750036
aF0.1063964843750036
aF0.1061464843750036
aF0.1058964843750036
aF0.1056464843750036
aF0.1053964843750036
aF0.1051464843750036
aF0.1048964843750036
aF0.1046464843750036
aF0.1043964843750036
aF0.1041464843750036
aF0.1038964843750036
aF0.1036464843750036
aF0.10327148437500361
aF0.10302148437500361
aF0.10277148437500361
aF0.1023964843750036
aF0.1021464843750036
aF0.1018964843750036
aF0.1015214843750036
aF0.1012714843750036
aF0.10089648437500359
aF0.10064648437500359
aF0.1002714843750036
aF0.1000214843750036
aF0.09964648437500359
aF0.0992714843750036
aF0.09889648437500359
aF0.0985214843750036
aF0.09814648437500359
aF0.0977714843750036
aF0.09739648437500359
aF0.0970214843750036
aF0.09664648437500359
aF0.09623677253723503
aF0.09567270074040055
aF0.09532927419245599
aF0.09473968198606225
aF0.09439533801554709
aF0.09381213013848767
aF0.09326244968845747
aF0.09271599002231418
aF0.09217273226827719
aF0.09163265766514274
aF0.09091660154873213
aF0.09038406203381075
aF0.089677762968669
aF0.08897715544547627
aF0.08810806669655145
aF0.08724763635771796
aF0.0863956086589121
aF0.0853829935440045
aF0.0842154829799272
aF0.0828994530421466
aF0.08160414908836308
aF0.08001000150112611
aF0.07829088082299755
aF0.07614965627314124
aF0.07347192201105532
aF0.07031434380247639
aF0.06633071347317289
aF0.060758090445408294
aF0.052804285177926104
aF0.04000913476065379
aF0.015101028464802414
aF5.929403177970507e-05
aF2.9647015889852537e-05
aF1.4823507944926268e-05
aF7.411753972463134e-06
aF3.705876986231567e-06
aF1.8529384931157835e-06
aF9.264692465578918e-07
aF4.632346232789459e-07
aF2.3161731163947294e-07
aF1.1580865581973647e-07
aF5.7904327909868235e-08
aF2.8952163954934118e-08
aI0
aI0
aI0
aI0
aI0
aI0
aI0
aI0
aI0
aI0
aI0
aI0
aI0
aI0
aI0
aI0
aI0
aI0
aI0
aI0
aI0
aI0
aI0
aI0
aI0
aI0
aI0
aI0
aI0
aI0
aI0
aI0
aI0
aI0
aI0
aI0
aI0
aI0
aI0
aI0
aI0
aI0
aI0
aI0
aI0
aI0
aI0
aI0
aI0
aI0
aI0
aI0
aI0
aI0
aI0
aI0
aI0
aI0
aI0
aI0
aI0
aI0
aI0
aI0
aI0
aI0
aI0
aI0
aI0
aI0
aI0
aI0
aI0
aI0
aI0
aI0
aI0
aI0
aI0
aI0
aI0
aI0
aI0
aI0
aI0
aI0
aI0
aI0
aI0
aI0
aI0
aI0
aI0
aI0
aI0
aI0
aI0
aI0
aI0
aI0
aI0
aI0
aI0
aI0
aI0
aI0
aI0
aI0
aI0
aI0
aI0
aI0
aI0
aI0
aI0
aI0
aI0
aI0
aI0
aI0
aI0
aI0
aI0
aI0
aI0
aI0
aI0
aI0
aI0
aI0
aI0
aI0
aI0
aI0
aI0
aI0
aI0
aI0
aI0
aI0
aI0
aI0
aI0
aI0
aI0
aI0
aI0
aI0
aI0
aI0
aI0
aI0
aI0
aI0
aI0
aI0
aI0
aI0
aI0
aI0
aI0
aI0
aI0
aI0
aI0
aI0
aI0
aI0
aI0
aI0
aI0
aI0
aI0
aI0
aI0
aI0
aI0
aI0
aI0
aI0
aI0
aI0
aI0
aI0
aI0
aI0
aI0
aI0
aI0
aI0
aI0
aI0
aI0
aI0
aI0
aI0
aI0
aI0
aI0
aI0
aI0
aI0
aI0
aI0
aI0
aI0
aI0
aI0
aI0
aI0
aI0
aI0
aI0
aI0
aI0
aI0
aI0
aI0
aI0
aI0
aI0
aI0
aI0
aI0
aI0
aI0
aI0
aI0
aI0
aI0
aI0
aI0
aI0
aI0
aI0
aI0
aI0
aI0
aI0
aI0
aI0
aI0
aI0
aI0
aI0
aI0
aI0
aI0
aI0
aI0
aI0
aI0
aI0
aI0
aI0
aI0
aI0
aI0
aI0
aI0
aI0
aI0
aI0
aI0
aI0
aI0
aI0
aI0
aI0
aI0
aI0
aI0
aI0
aI0
aI0
aI0
aI0
aI0
aI0
aI0
aI0
aI0
aI0
aI0
aI0
aI0
aI0
aI0
aI0
aI0
aI0
aI0
aI0
aI0
aI0
aI0
aI0
aI0
aI0
aI0
aI0
aI0
aI0
aI0
aI0
aI0
aI0
aI0
aI0
aI0
aI0
aI0
aI0
aI0
aI0
aI0
aI0
aI0
aI0
aI0
aI0
aI0
aI0
aI0
aI0
aI0
aI0
aI0
aI0
aI0
aI0
aI0
aI0
aI0
aI0
aI0
aI0
aI0
aI0
aI0
aI0
aI0
aI0
aI0
aI0
aI0
aI0
aI0
aI0
aI0
aI0
aI0
aI0
aI0
aI0
aI0
aI0
aI0
aI0
aI0
aI0
aI0
aI0
aI0
aI0
aI0
aI0
aI0
aI0
aI0
aI0
aI0
aI0
aI0
aI0
aI0
aI0
aI0
aI0
aI0
aI0
aI0
aI0
aI0
aI0
aI0
aI0
aI0
aI0
aI0
aI0
aI0
aI0
aI0
aI0
aI0
aI0
aI0
aI0
aI0
aI0
aI0
aI0
aI0
aI0
aI0
aI0
aI0
aI0
aI0
aI0
aI0
aI0
aI0
aI0
aI0
aI0
aI0
aI0
aI0
aI0
aI0
aI0
aI0
a.