(lp0
F0.17364501953125
aF0.1735185546875
aF0.17351855468750002
aF0.1733935546875
aF0.17339355468750003
aF0.17326855468750002
aF0.17326855468750005
aF0.17326855468750005
aF0.17314355468750003
aF0.17314355468750006
aF0.17301855468750005
aF0.17301855468750008
aF0.17289355468750006
aF0.1728935546875001
aF0.17276855468750008
aF0.1727685546875001
aF0.1727685546875001
aF0.1726435546875001
aF0.17264355468750012
aF0.1725185546875001
aF0.17251855468750013
aF0.17239355468750012
aF0.17239355468750014
aF0.17226855468750013
aF0.17226855468750016
aF0.17226855468750016
aF0.17214355468750014
aF0.17214355468750017
aF0.17201855468750016
aF0.17201855468750019
aF0.17189355468750017
aF0.1718935546875002
aF0.17176855468750019
aF0.1717685546875002
aF0.1717685546875002
aF0.1716435546875002
aF0.17164355468750023
aF0.1715185546875002
aF0.17151855468750024
aF0.17139355468750023
aF0.17139355468750025
aF0.17126855468750024
aF0.17126855468750027
aF0.17114355468750025
aF0.17114355468750028
aF0.17114355468750028
aF0.17101855468750027
aF0.1710185546875003
aF0.17089355468750028
aF0.1708935546875003
aF0.1707685546875003
aF0.17076855468750032
aF0.1706435546875003
aF0.17064355468750034
aF0.17051855468750032
aF0.17051855468750035
aF0.17039355468750034
aF0.17039355468750036
aF0.17039355468750036
aF0.17026855468750035
aF0.17026855468750038
aF0.17014355468750036
aF0.1701435546875004
aF0.17001855468750038
aF0.1700185546875004
aF0.1698935546875004
aF0.16989355468750042
aF0.1697685546875004
aF0.16976855468750043
aF0.16964355468750042
aF0.16964355468750045
aF0.16951855468750043
aF0.16951855468750046
aF0.16951855468750046
aF0.16939355468750045
aF0.16939355468750047
aF0.16926855468750046
aF0.1692685546875005
aF0.16914355468750047
aF0.1691435546875005
aF0.1690185546875005
aF0.16901855468750052
aF0.1688935546875005
aF0.16889355468750053
aF0.16876855468750052
aF0.16876855468750054
aF0.16864355468750053
aF0.16864355468750056
aF0.16851855468750054
aF0.16851855468750057
aF0.16851855468750057
aF0.16839355468750056
aF0.16839355468750059
aF0.16826855468750057
aF0.1682685546875006
aF0.16814355468750058
aF0.1681435546875006
aF0.1680185546875006
aF0.16801855468750063
aF0.1678935546875006
aF0.16789355468750064
aF0.16776855468750063
aF0.16776855468750065
aF0.16764355468750064
aF0.16764355468750067
aF0.16751855468750065
aF0.16751855468750068
aF0.16739355468750067
aF0.1673935546875007
aF0.16726855468750068
aF0.1672685546875007
aF0.1671435546875007
aF0.16714355468750072
aF0.1670185546875007
aF0.16701855468750074
aF0.16689355468750072
aF0.16689355468750075
aF0.16676855468750074
aF0.16676855468750076
aF0.16664355468750075
aF0.16664355468750078
aF0.16651855468750076
aF0.1665185546875008
aF0.16639355468750078
aF0.1663935546875008
aF0.1663935546875008
aF0.1662685546875008
aF0.16626855468750082
aF0.1661435546875008
aF0.16614355468750083
aF0.16601855468750082
aF0.16601855468750085
aF0.16589355468750083
aF0.16589355468750086
aF0.16576855468750085
aF0.16576855468750087
aF0.16564355468750086
aF0.1656435546875009
aF0.16551855468750087
aF0.1655185546875009
aF0.1653935546875009
aF0.16539355468750092
aF0.1652685546875009
aF0.16526855468750093
aF0.16514355468750092
aF0.16514355468750094
aF0.16501855468750093
aF0.16489355468750094
aF0.16489355468750097
aF0.16476855468750096
aF0.16476855468750098
aF0.16464355468750097
aF0.164643554687501
aF0.16451855468750098
aF0.164518554687501
aF0.164393554687501
aF0.16439355468750103
aF0.164268554687501
aF0.16426855468750104
aF0.16414355468750103
aF0.16414355468750105
aF0.16401855468750104
aF0.16401855468750107
aF0.16389355468750105
aF0.16389355468750108
aF0.16376855468750107
aF0.1637685546875011
aF0.16364355468750108
aF0.1636435546875011
aF0.1635185546875011
aF0.16351855468750112
aF0.1633935546875011
aF0.16339355468750114
aF0.16326855468750112
aF0.16326855468750115
aF0.16314355468750114
aF0.16314355468750116
aF0.16301855468750115
aF0.16301855468750118
aF0.16289355468750116
aF0.16276855468750118
aF0.1627685546875012
aF0.1626435546875012
aF0.16264355468750122
aF0.1625185546875012
aF0.16251855468750123
aF0.16239355468750122
aF0.16239355468750125
aF0.16226855468750123
aF0.16226855468750126
aF0.16214355468750125
aF0.16214355468750127
aF0.16201855468750126
aF0.1620185546875013
aF0.16189355468750127
aF0.1618935546875013
aF0.1617685546875013
aF0.1616435546875013
aF0.16164355468750133
aF0.16151855468750131
aF0.16151855468750134
aF0.16139355468750133
aF0.16139355468750136
aF0.16126855468750134
aF0.16126855468750137
aF0.16114355468750136
aF0.16114355468750138
aF0.16101855468750137
aF0.16089355468750138
aF0.1608935546875014
aF0.1607685546875014
aF0.16076855468750142
aF0.1606435546875014
aF0.16064355468750144
aF0.16051855468750142
aF0.16051855468750145
aF0.16039355468750144
aF0.16039355468750147
aF0.16026855468750145
aF0.16014355468750147
aF0.1601435546875015
aF0.16001855468750148
aF0.1600185546875015
aF0.1598935546875015
aF0.15989355468750152
aF0.1597685546875015
aF0.15976855468750153
aF0.15964355468750152
aF0.15951855468750153
aF0.15951855468750156
aF0.15939355468750155
aF0.15939355468750158
aF0.15926855468750156
aF0.1592685546875016
aF0.15914355468750158
aF0.1591435546875016
aF0.1590185546875016
aF0.1588935546875016
aF0.15889355468750163
aF0.15876855468750162
aF0.15876855468750165
aF0.15864355468750163
aF0.15864355468750166
aF0.15851855468750164
aF0.15839355468750166
aF0.1583935546875017
aF0.15826855468750167
aF0.1582685546875017
aF0.1581435546875017
aF0.15814355468750171
aF0.1580185546875017
aF0.1578935546875017
aF0.15789355468750174
aF0.15776855468750173
aF0.15776855468750176
aF0.15764355468750174
aF0.15764355468750177
aF0.15751855468750176
aF0.15739355468750177
aF0.1573935546875018
aF0.15726855468750178
aF0.1572685546875018
aF0.1571435546875018
aF0.1570185546875018
aF0.15701855468750184
aF0.15689355468750182
aF0.15689355468750185
aF0.15676855468750184
aF0.15676855468750187
aF0.15664355468750185
aF0.15651855468750187
aF0.1565185546875019
aF0.15639355468750188
aF0.1563935546875019
aF0.1562685546875019
aF0.1561435546875019
aF0.15614355468750193
aF0.15601855468750192
aF0.15601855468750195
aF0.15589355468750193
aF0.15576855468750195
aF0.15576855468750198
aF0.15564355468750196
aF0.155643554687502
aF0.15551855468750198
aF0.155393554687502
aF0.15539355468750202
aF0.155268554687502
aF0.15526855468750203
aF0.15514355468750202
aF0.15501855468750203
aF0.15501855468750206
aF0.15489355468750204
aF0.15489355468750207
aF0.15476855468750206
aF0.15464355468750207
aF0.1546435546875021
aF0.15451855468750209
aF0.1545185546875021
aF0.1543935546875021
aF0.1542685546875021
aF0.15426855468750214
aF0.15414355468750213
aF0.15401855468750214
aF0.15401855468750217
aF0.15389355468750215
aF0.15389355468750218
aF0.15376855468750217
aF0.15364355468750218
aF0.1536435546875022
aF0.1535185546875022
aF0.1533935546875022
aF0.15339355468750224
aF0.15326855468750222
aF0.15326855468750225
aF0.15314355468750224
aF0.15301855468750225
aF0.15301855468750228
aF0.15289355468750226
aF0.15276855468750228
aF0.1527685546875023
aF0.1526435546875023
aF0.15264355468750232
aF0.1525185546875023
aF0.15239355468750232
aF0.15239355468750235
aF0.15226855468750233
aF0.15214355468750235
aF0.15214355468750237
aF0.15201855468750236
aF0.15189355468750237
aF0.1518935546875024
aF0.1517685546875024
aF0.1516435546875024
aF0.15164355468750243
aF0.15151855468750242
aF0.15139355468750243
aF0.15139355468750246
aF0.15126855468750244
aF0.15126855468750247
aF0.15114355468750246
aF0.15101855468750247
aF0.1510185546875025
aF0.15089355468750248
aF0.1507685546875025
aF0.15076855468750253
aF0.1506435546875025
aF0.15051855468750253
aF0.15051855468750255
aF0.15039355468750254
aF0.15026855468750255
aF0.15026855468750258
aF0.15014355468750257
aF0.15001855468750258
aF0.1500185546875026
aF0.1498935546875026
aF0.1497685546875026
aF0.14976855468750264
aF0.14964355468750262
aF0.14951855468750264
aF0.14951855468750266
aF0.14939355468750265
aF0.14926855468750266
aF0.14914355468750268
aF0.1491435546875027
aF0.1490185546875027
aF0.1488935546875027
aF0.14889355468750273
aF0.14876855468750272
aF0.14864355468750273
aF0.14864355468750276
aF0.14851855468750275
aF0.14839355468750276
aF0.1483935546875028
aF0.14826855468750277
aF0.1481435546875028
aF0.1480185546875028
aF0.14801855468750283
aF0.14789355468750282
aF0.14776855468750283
aF0.14776855468750286
aF0.14764355468750284
aF0.14751855468750286
aF0.14751855468750288
aF0.14739355468750287
aF0.14726855468750288
aF0.1471435546875029
aF0.14714355468750293
aF0.1470185546875029
aF0.14689355468750293
aF0.14689355468750295
aF0.14676855468750294
aF0.14664355468750295
aF0.14651855468750297
aF0.146518554687503
aF0.14639355468750298
aF0.146268554687503
aF0.14626855468750302
aF0.146143554687503
aF0.14601855468750302
aF0.14589355468750304
aF0.14589355468750306
aF0.14576855468750305
aF0.14564355468750306
aF0.14551855468750308
aF0.1455185546875031
aF0.1453935546875031
aF0.1452685546875031
aF0.14514355468750312
aF0.14514355468750315
aF0.14501855468750313
aF0.14489355468750315
aF0.14476855468750316
aF0.1447685546875032
aF0.14464355468750317
aF0.1445185546875032
aF0.1443935546875032
aF0.14439355468750323
aF0.14426855468750321
aF0.14414355468750323
aF0.14401855468750324
aF0.14401855468750327
aF0.14389355468750326
aF0.14376855468750327
aF0.14364355468750328
aF0.1436435546875033
aF0.1435185546875033
aF0.1433935546875033
aF0.14326855468750332
aF0.14314355468750334
aF0.14314355468750337
aF0.14301855468750335
aF0.14289355468750337
aF0.14276855468750338
aF0.1427685546875034
aF0.1426435546875034
aF0.1425185546875034
aF0.14239355468750342
aF0.14226855468750343
aF0.14226855468750346
aF0.14214355468750345
aF0.14201855468750346
aF0.14189355468750348
aF0.1417685546875035
aF0.14176855468750352
aF0.1416435546875035
aF0.14151855468750352
aF0.14139355468750353
aF0.14126855468750354
aF0.14114355468750356
aF0.1411435546875036
aF0.14101855468750357
aF0.14089355468750359
aF0.1407685546875036
aF0.1406435546875036
aF0.14064355468750364
aF0.14051855468750363
aF0.14039355468750364
aF0.14026855468750365
aF0.14014355468750367
aF0.14001855468750368
aF0.1400185546875037
aF0.1398935546875037
aF0.1397685546875037
aF0.13964355468750372
aF0.13951855468750374
aF0.13939355468750375
aF0.13926855468750376
aF0.1392685546875038
aF0.13914355468750378
aF0.1390185546875038
aF0.1388935546875038
aF0.13876855468750382
aF0.13864355468750383
aF0.13851855468750385
aF0.13851855468750388
aF0.13839355468750386
aF0.13826855468750388
aF0.1381435546875039
aF0.1380185546875039
aF0.13789355468750392
aF0.13776855468750393
aF0.13764355468750394
aF0.13764355468750397
aF0.13751855468750396
aF0.13739355468750397
aF0.13726855468750399
aF0.137143554687504
aF0.137018554687504
aF0.13689355468750403
aF0.13676855468750404
aF0.13664355468750405
aF0.13651855468750407
aF0.1365185546875041
aF0.13639355468750408
aF0.1362685546875041
aF0.1361435546875041
aF0.13601855468750412
aF0.13589355468750414
aF0.13576855468750415
aF0.13564355468750416
aF0.13551855468750418
aF0.1353935546875042
aF0.1352685546875042
aF0.13514355468750422
aF0.13501855468750423
aF0.13489355468750425
aF0.13476855468750426
aF0.13464355468750427
aF0.1345185546875043
aF0.13451855468750432
aF0.1343935546875043
aF0.13426855468750432
aF0.13414355468750433
aF0.13401855468750434
aF0.13389355468750436
aF0.13376855468750437
aF0.13364355468750438
aF0.1335185546875044
aF0.1333935546875044
aF0.13326855468750443
aF0.13314355468750444
aF0.13301855468750445
aF0.13289355468750447
aF0.13276855468750448
aF0.1326435546875045
aF0.1325185546875045
aF0.13239355468750452
aF0.13226855468750454
aF0.13214355468750455
aF0.13201855468750456
aF0.1317685546875046
aF0.13164355468750458
aF0.13151855468750456
aF0.13139355468750458
aF0.1312685546875046
aF0.1311435546875046
aF0.13101855468750462
aF0.13089355468750463
aF0.13076855468750465
aF0.13064355468750466
aF0.13051855468750467
aF0.1303935546875047
aF0.1302685546875047
aF0.13014355468750471
aF0.13001855468750473
aF0.12976855468750476
aF0.12964355468750474
aF0.12951855468750473
aF0.12939355468750474
aF0.12926855468750476
aF0.12914355468750477
aF0.12901855468750478
aF0.1288935546875048
aF0.1287685546875048
aF0.12851855468750484
aF0.12839355468750482
aF0.1282685546875048
aF0.12814355468750482
aF0.12801855468750484
aF0.12789355468750485
aF0.12764355468750488
aF0.12751855468750486
aF0.12739355468750485
aF0.12726855468750486
aF0.12714355468750488
aF0.1268935546875049
aF0.1267685546875049
aF0.12664355468750488
aF0.1265185546875049
aF0.1263935546875049
aF0.12614355468750493
aF0.12601855468750492
aF0.1258935546875049
aF0.12576855468750492
aF0.12551855468750495
aF0.12539355468750493
aF0.12526855468750492
aF0.12514355468750493
aF0.12489355468750496
aF0.12476855468750495
aF0.12464355468750496
aF0.12439355468750496
aF0.12426855468750495
aF0.12414355468750496
aF0.12401855468750494
aF0.12376855468750494
aF0.12364355468750496
aF0.12351855468750494
aF0.12326855468750494
aF0.12314355468750496
aF0.12289355468750496
aF0.12276855468750494
aF0.12264355468750496
aF0.12239355468750496
aF0.12226855468750494
aF0.12201855468750494
aF0.12189355468750496
aF0.12176855468750494
aF0.12151855468750494
aF0.12139355468750496
aF0.12114355468750496
aF0.12101855468750494
aF0.12076855468750494
aF0.12064355468750496
aF0.12039355468750496
aF0.12026855468750494
aF0.12001855468750494
aF0.11989355468750496
aF0.11964355468750495
aF0.11951855468750494
aF0.11926855468750494
aF0.11914355468750495
aF0.11889355468750495
aF0.11864355468750495
aF0.11851855468750494
aF0.11826855468750494
aF0.11801855468750494
aF0.11789355468750495
aF0.11764355468750495
aF0.11739355468750495
aF0.11726855468750494
aF0.11701855468750494
aF0.11676855468750494
aF0.11664355468750495
aF0.11639355468750495
aF0.11614355468750495
aF0.11589355468750495
aF0.11564355468750495
aF0.11551855468750494
aF0.11526855468750494
aF0.11501855468750494
aF0.11476855468750494
aF0.11451855468750494
aF0.11426855468750494
aF0.11401855468750494
aF0.11376855468750494
aF0.11351855468750494
aF0.11326855468750494
aF0.11301855468750494
aF0.11276855468750493
aF0.11251855468750493
aF0.11226855468750493
aF0.11201855468750493
aF0.11176855468750493
aF0.11139355468750495
aF0.11114355468750495
aF0.11089355468750495
aF0.11064355468750495
aF0.11026855468750493
aF0.11001855468750493
aF0.10976855468750493
aF0.10939355468750495
aF0.10914355468750495
aF0.10876855468750493
aF0.10851855468750493
aF0.10814355468750494
aF0.10776855468750493
aF0.10751855468750493
aF0.10714355468750494
aF0.10676855468750493
aF0.10639355468750494
aF0.10614355468750494
aF0.10576855468750493
aF0.10539355468750494
aF0.10501855468750493
aF0.10461927270889773
aF0.10423308181763186
aF0.10373540046997856
aF0.10334882604703793
aF0.10297382604703795
aF0.10248290828018373
aF0.10198250345459689
aF0.10159506850293004
aF0.10116119365672432
aF0.10056825839121765
aF0.10017560677089335
aF0.09958844831762768
aF0.09900492225326657
aF0.09842481528693886
aF0.09784810738486695
aF0.09727477863065875
aF0.09670480922461973
aF0.09594911718320084
aF0.09538709995585773
aF0.09464170504873126
aF0.09390231672803806
aF0.09316870487860027
aF0.09244082437173619
aF0.09153790406595007
aF0.09064397922155604
aF0.08975878411197052
aF0.08870675030031758
aF0.08766721807023571
aF0.08663986785847513
aF0.08545517103775638
aF0.0841197685744035
aF0.08280539719042844
aF0.08134967296288445
aF0.07976065406722613
aF0.07789095310437003
aF0.07606538389098635
aF0.07383645970555464
aF0.07152892511132165
aF0.06887410848493336
aF0.06577960811976817
aF0.06231023559661086
aF0.058171567362576254
aF0.053398729217427714
aF0.04755668823429601
aF0.04044896009774182
aF0.03143584501274392
aF0.019512234443275003
aF0.0029819441488256188
aF9.557513297518008e-05
aF4.778756648759004e-05
aF2.389378324379502e-05
aF1.194689162189751e-05
aF5.973445810948755e-06
aF2.9867229054743775e-06
aF1.4933614527371888e-06
aF7.466807263685944e-07
aF3.733403631842972e-07
aF1.866701815921486e-07
aF9.33350907960743e-08
aF4.666754539803715e-08
aI0
aI0
aI0
aI0
aI0
aI0
aI0
aI0
aI0
aI0
aI0
aI0
aI0
aI0
aI0
aI0
aI0
aI0
aI0
aI0
aI0
aI0
aI0
aI0
aI0
aI0
aI0
aI0
aI0
aI0
aI0
aI0
aI0
aI0
aI0
aI0
aI0
aI0
aI0
aI0
aI0
aI0
aI0
aI0
aI0
aI0
aI0
aI0
aI0
aI0
aI0
aI0
aI0
aI0
aI0
aI0
aI0
aI0
aI0
aI0
aI0
aI0
aI0
aI0
aI0
aI0
aI0
aI0
aI0
aI0
aI0
aI0
aI0
aI0
aI0
aI0
aI0
aI0
aI0
aI0
aI0
aI0
aI0
aI0
aI0
aI0
aI0
aI0
aI0
aI0
aI0
aI0
aI0
aI0
aI0
aI0
aI0
aI0
aI0
aI0
aI0
aI0
aI0
aI0
aI0
aI0
aI0
aI0
aI0
aI0
aI0
aI0
aI0
aI0
aI0
aI0
aI0
aI0
aI0
aI0
aI0
aI0
aI0
aI0
aI0
aI0
aI0
aI0
aI0
aI0
aI0
aI0
aI0
aI0
aI0
aI0
aI0
aI0
aI0
aI0
aI0
aI0
aI0
aI0
aI0
aI0
aI0
aI0
aI0
aI0
aI0
aI0
aI0
aI0
aI0
aI0
aI0
aI0
aI0
aI0
aI0
aI0
aI0
aI0
aI0
aI0
aI0
aI0
aI0
aI0
aI0
aI0
aI0
aI0
aI0
aI0
aI0
aI0
aI0
aI0
aI0
aI0
aI0
aI0
aI0
aI0
aI0
aI0
aI0
aI0
aI0
aI0
aI0
aI0
aI0
aI0
aI0
aI0
aI0
aI0
aI0
aI0
aI0
aI0
aI0
aI0
aI0
aI0
aI0
aI0
aI0
aI0
aI0
aI0
aI0
aI0
aI0
aI0
aI0
aI0
aI0
aI0
aI0
aI0
aI0
aI0
aI0
aI0
aI0
aI0
aI0
aI0
aI0
aI0
aI0
aI0
aI0
aI0
aI0
aI0
aI0
aI0
aI0
aI0
aI0
aI0
aI0
aI0
aI0
aI0
aI0
aI0
aI0
aI0
aI0
aI0
aI0
aI0
aI0
aI0
aI0
aI0
aI0
aI0
aI0
aI0
aI0
aI0
aI0
aI0
aI0
aI0
aI0
a.