(lp0
F0.14984130859375
aF0.14983984375
aF0.14971484375
aF0.14958984375
aF0.14958984375000003
aF0.14946484375000002
aF0.14946484375000005
aF0.14933984375000003
aF0.14933984375000006
aF0.14921484375000005
aF0.14921484375000008
aF0.14908984375000006
aF0.1490898437500001
aF0.14896484375000008
aF0.1488398437500001
aF0.14883984375000012
aF0.1487148437500001
aF0.14871484375000013
aF0.14858984375000012
aF0.14858984375000014
aF0.14846484375000013
aF0.14833984375000014
aF0.14833984375000017
aF0.14821484375000016
aF0.14821484375000019
aF0.14808984375000017
aF0.1480898437500002
aF0.14796484375000019
aF0.1479648437500002
aF0.1478398437500002
aF0.1477148437500002
aF0.14771484375000024
aF0.14758984375000023
aF0.14758984375000025
aF0.14746484375000024
aF0.14746484375000027
aF0.14733984375000025
aF0.14721484375000027
aF0.1472148437500003
aF0.14708984375000028
aF0.1470898437500003
aF0.1469648437500003
aF0.14696484375000032
aF0.1468398437500003
aF0.14671484375000032
aF0.14671484375000035
aF0.14658984375000034
aF0.14658984375000036
aF0.14646484375000035
aF0.14646484375000038
aF0.14633984375000036
aF0.14621484375000038
aF0.1462148437500004
aF0.1460898437500004
aF0.14608984375000042
aF0.1459648437500004
aF0.14583984375000042
aF0.14583984375000045
aF0.14571484375000043
aF0.14571484375000046
aF0.14558984375000045
aF0.14558984375000047
aF0.14546484375000046
aF0.14533984375000047
aF0.1453398437500005
aF0.1452148437500005
aF0.14521484375000052
aF0.1450898437500005
aF0.14496484375000052
aF0.14496484375000054
aF0.14483984375000053
aF0.14483984375000056
aF0.14471484375000054
aF0.14458984375000056
aF0.14458984375000059
aF0.14446484375000057
aF0.1444648437500006
aF0.14433984375000058
aF0.1442148437500006
aF0.14421484375000063
aF0.1440898437500006
aF0.14408984375000064
aF0.14396484375000063
aF0.14383984375000064
aF0.14383984375000067
aF0.14371484375000065
aF0.14371484375000068
aF0.14358984375000067
aF0.14346484375000068
aF0.1434648437500007
aF0.1433398437500007
aF0.1432148437500007
aF0.14321484375000074
aF0.14308984375000072
aF0.14308984375000075
aF0.14296484375000074
aF0.14283984375000075
aF0.14283984375000078
aF0.14271484375000076
aF0.1427148437500008
aF0.14258984375000078
aF0.1424648437500008
aF0.14246484375000082
aF0.1423398437500008
aF0.14221484375000082
aF0.14221484375000085
aF0.14208984375000083
aF0.14208984375000086
aF0.14196484375000085
aF0.14183984375000086
aF0.1418398437500009
aF0.14171484375000087
aF0.1415898437500009
aF0.14158984375000092
aF0.1414648437500009
aF0.14133984375000092
aF0.14133984375000094
aF0.14121484375000093
aF0.14121484375000096
aF0.14108984375000094
aF0.14096484375000096
aF0.14096484375000098
aF0.14083984375000097
aF0.14071484375000098
aF0.140714843750001
aF0.140589843750001
aF0.140464843750001
aF0.14046484375000104
aF0.14033984375000103
aF0.14021484375000104
aF0.14021484375000107
aF0.14008984375000105
aF0.13996484375000107
aF0.1399648437500011
aF0.13983984375000108
aF0.1398398437500011
aF0.1397148437500011
aF0.1395898437500011
aF0.13958984375000114
aF0.13946484375000112
aF0.13933984375000114
aF0.13933984375000116
aF0.13921484375000115
aF0.13908984375000116
aF0.1390898437500012
aF0.13896484375000118
aF0.1388398437500012
aF0.13883984375000122
aF0.1387148437500012
aF0.13858984375000122
aF0.13858984375000125
aF0.13846484375000123
aF0.13833984375000125
aF0.13833984375000127
aF0.13821484375000126
aF0.13808984375000127
aF0.1379648437500013
aF0.13796484375000131
aF0.1378398437500013
aF0.13771484375000131
aF0.13771484375000134
aF0.13758984375000133
aF0.13746484375000134
aF0.13746484375000137
aF0.13733984375000136
aF0.13721484375000137
aF0.1372148437500014
aF0.13708984375000138
aF0.1369648437500014
aF0.13696484375000142
aF0.1368398437500014
aF0.13671484375000142
aF0.13658984375000144
aF0.13658984375000147
aF0.13646484375000145
aF0.13633984375000147
aF0.1363398437500015
aF0.13621484375000148
aF0.1360898437500015
aF0.13608984375000152
aF0.1359648437500015
aF0.13583984375000152
aF0.13571484375000153
aF0.13571484375000156
aF0.13558984375000155
aF0.13546484375000156
aF0.1354648437500016
aF0.13533984375000158
aF0.1352148437500016
aF0.1350898437500016
aF0.13508984375000163
aF0.13496484375000162
aF0.13483984375000163
aF0.13471484375000164
aF0.13471484375000167
aF0.13458984375000166
aF0.13446484375000167
aF0.1344648437500017
aF0.1343398437500017
aF0.1342148437500017
aF0.1340898437500017
aF0.13408984375000174
aF0.13396484375000173
aF0.13383984375000174
aF0.13371484375000176
aF0.13371484375000178
aF0.13358984375000177
aF0.13346484375000178
aF0.1333398437500018
aF0.13333984375000182
aF0.1332148437500018
aF0.13308984375000182
aF0.13296484375000184
aF0.13296484375000187
aF0.13283984375000185
aF0.13271484375000187
aF0.13258984375000188
aF0.1325898437500019
aF0.1324648437500019
aF0.1323398437500019
aF0.13221484375000192
aF0.13221484375000195
aF0.13208984375000193
aF0.13196484375000195
aF0.13183984375000196
aF0.13171484375000198
aF0.131714843750002
aF0.131589843750002
aF0.131464843750002
aF0.13133984375000202
aF0.13133984375000204
aF0.13121484375000203
aF0.13108984375000204
aF0.13096484375000206
aF0.13083984375000207
aF0.1308398437500021
aF0.13071484375000209
aF0.1305898437500021
aF0.1304648437500021
aF0.13033984375000213
aF0.13033984375000215
aF0.13021484375000214
aF0.13008984375000215
aF0.12996484375000217
aF0.12983984375000218
aF0.1298398437500022
aF0.1297148437500022
aF0.1295898437500022
aF0.12946484375000222
aF0.12933984375000224
aF0.12933984375000226
aF0.12921484375000225
aF0.12908984375000226
aF0.12896484375000228
aF0.1288398437500023
aF0.1287148437500023
aF0.12871484375000233
aF0.12858984375000232
aF0.12846484375000233
aF0.12833984375000235
aF0.12821484375000236
aF0.12808984375000237
aF0.1280898437500024
aF0.1279648437500024
aF0.1278398437500024
aF0.12771484375000242
aF0.12758984375000243
aF0.12746484375000244
aF0.12733984375000246
aF0.12733984375000248
aF0.12721484375000247
aF0.12708984375000248
aF0.1269648437500025
aF0.1268398437500025
aF0.12671484375000253
aF0.12658984375000254
aF0.12658984375000257
aF0.12646484375000255
aF0.12633984375000257
aF0.12621484375000258
aF0.1260898437500026
aF0.1259648437500026
aF0.12583984375000262
aF0.12571484375000264
aF0.12571484375000266
aF0.12558984375000265
aF0.12546484375000266
aF0.12533984375000268
aF0.1252148437500027
aF0.1250898437500027
aF0.12496484375000273
aF0.12483984375000273
aF0.12471484375000275
aF0.12458984375000273
aF0.12446484375000275
aF0.12446484375000275
aF0.12433984375000273
aF0.12421484375000275
aF0.12408984375000273
aF0.12396484375000275
aF0.12383984375000273
aF0.12371484375000275
aF0.12358984375000273
aF0.12346484375000275
aF0.12333984375000273
aF0.12321484375000274
aF0.12308984375000273
aF0.12296484375000274
aF0.12283984375000273
aF0.12271484375000274
aF0.12258984375000273
aF0.12246484375000274
aF0.12233984375000273
aF0.12233984375000273
aF0.12221484375000274
aF0.12208984375000273
aF0.12196484375000274
aF0.12183984375000273
aF0.12171484375000274
aF0.12158984375000273
aF0.12146484375000274
aF0.12133984375000273
aF0.12121484375000274
aF0.12108984375000273
aF0.12096484375000274
aF0.12083984375000273
aF0.12071484375000274
aF0.12058984375000273
aF0.12046484375000274
aF0.12033984375000273
aF0.12021484375000274
aF0.12008984375000273
aF0.11983984375000273
aF0.11971484375000274
aF0.11958984375000273
aF0.11946484375000274
aF0.11933984375000273
aF0.11921484375000274
aF0.11908984375000273
aF0.11896484375000274
aF0.11883984375000273
aF0.11871484375000274
aF0.11858984375000273
aF0.11846484375000274
aF0.11833984375000273
aF0.11821484375000274
aF0.11808984375000273
aF0.11796484375000274
aF0.11771484375000274
aF0.11758984375000273
aF0.11746484375000274
aF0.11733984375000273
aF0.11721484375000274
aF0.11708984375000273
aF0.11696484375000274
aF0.11683984375000273
aF0.11671484375000274
aF0.11646484375000274
aF0.11633984375000272
aF0.11621484375000274
aF0.11608984375000272
aF0.11596484375000274
aF0.11583984375000272
aF0.11558984375000272
aF0.11546484375000274
aF0.11533984375000272
aF0.11521484375000274
aF0.11508984375000272
aF0.11496484375000274
aF0.11471484375000274
aF0.11458984375000272
aF0.11446484375000274
aF0.11433984375000272
aF0.11421484375000274
aF0.11396484375000274
aF0.11383984375000272
aF0.11371484375000274
aF0.11358984375000272
aF0.11333984375000272
aF0.11321484375000274
aF0.11308984375000272
aF0.11296484375000274
aF0.11271484375000274
aF0.11258984375000272
aF0.11246484375000274
aF0.11221484375000274
aF0.11208984375000272
aF0.11196484375000273
aF0.11171484375000273
aF0.11158984375000272
aF0.11146484375000273
aF0.11121484375000273
aF0.11108984375000272
aF0.11096484375000273
aF0.11071484375000273
aF0.11058984375000272
aF0.11046484375000273
aF0.11021484375000273
aF0.11008984375000272
aF0.10983984375000272
aF0.10971484375000273
aF0.10958984375000272
aF0.10933984375000272
aF0.10921484375000273
aF0.10896484375000273
aF0.10883984375000272
aF0.10858984375000272
aF0.10846484375000273
aF0.10821484375000273
aF0.10808984375000272
aF0.10783984375000272
aF0.10771484375000273
aF0.10746484375000273
aF0.10733984375000272
aF0.10708984375000272
aF0.10696484375000273
aF0.10671484375000273
aF0.10658984375000272
aF0.10633984375000272
aF0.10608984375000272
aF0.10596484375000273
aF0.10571484375000273
aF0.10546484375000273
aF0.10533984375000272
aF0.10508984375000271
aF0.10483984375000271
aF0.10471484375000273
aF0.10446484375000273
aF0.10421484375000273
aF0.10408984375000271
aF0.10383984375000271
aF0.10358984375000271
aF0.10333984375000271
aF0.10308984375000271
aF0.10296484375000273
aF0.10271484375000273
aF0.10246484375000273
aF0.10221484375000273
aF0.10196484375000273
aF0.10171484375000273
aF0.10146484375000273
aF0.10121484375000273
aF0.10096484375000273
aF0.10071484375000272
aF0.10046484375000272
aF0.10021484375000272
aF0.09996484375000272
aF0.09971484375000272
aF0.09933984375000271
aF0.09908984375000271
aF0.09883984375000271
aF0.09858984375000271
aF0.09821484375000272
aF0.09796484375000272
aF0.09771484375000272
aF0.09733984375000271
aF0.09708984375000271
aF0.09671484375000272
aF0.09646484375000272
aF0.09608984375000271
aF0.0958398437500027
aF0.09546484375000272
aF0.0950898437500027
aF0.09471484375000272
aF0.0943398437500027
aF0.0940898437500027
aF0.0936926155090359
aF0.09332662872970374
aF0.09277961413463613
aF0.09243334286043223
aF0.09205834286043224
aF0.09167103405740279
aF0.091133723385659
aF0.09059973672519618
aF0.09025132201204494
aF0.08969644236938448
aF0.08917087727737638
aF0.08864839166832925
aF0.08795565586123263
aF0.0874404599398164
aF0.08675716341915377
aF0.08607937307994162
aF0.08540687797775459
aF0.08457266208987152
aF0.08374675718665012
aF0.0827651884070782
aF0.08179528385543275
aF0.08051691650876475
aF0.0792588396883153
aF0.07771050802297907
aF0.07604079500281
aF0.07381244386147631
aF0.07107272947776315
aF0.06746258093907372
aF0.06219016702983314
aF0.05417011682448466
aF0.03903142917991056
aF7.633669737633033e-05
aF3.8168348688165165e-05
aF1.9084174344082583e-05
aF9.542087172041291e-06
aF4.771043586020646e-06
aF2.385521793010323e-06
aF1.1927608965051614e-06
aF5.963804482525807e-07
aF2.9819022412629035e-07
aF1.4909511206314518e-07
aF7.454755603157259e-08
aF3.7273778015786294e-08
aI0
aI0
aI0
aI0
aI0
aI0
aI0
aI0
aI0
aI0
aI0
aI0
aI0
aI0
aI0
aI0
aI0
aI0
aI0
aI0
aI0
aI0
aI0
aI0
aI0
aI0
aI0
aI0
aI0
aI0
aI0
aI0
aI0
aI0
aI0
aI0
aI0
aI0
aI0
aI0
aI0
aI0
aI0
aI0
aI0
aI0
aI0
aI0
aI0
aI0
aI0
aI0
aI0
aI0
aI0
aI0
aI0
aI0
aI0
aI0
aI0
aI0
aI0
aI0
aI0
aI0
aI0
aI0
aI0
aI0
aI0
aI0
aI0
aI0
aI0
aI0
aI0
aI0
aI0
aI0
aI0
aI0
aI0
aI0
aI0
aI0
aI0
aI0
aI0
aI0
aI0
aI0
aI0
aI0
aI0
aI0
aI0
aI0
aI0
aI0
aI0
aI0
aI0
aI0
aI0
aI0
aI0
aI0
aI0
aI0
aI0
aI0
aI0
aI0
aI0
aI0
aI0
aI0
aI0
aI0
aI0
aI0
aI0
aI0
aI0
aI0
aI0
aI0
aI0
aI0
aI0
aI0
aI0
aI0
aI0
aI0
aI0
aI0
aI0
aI0
aI0
aI0
aI0
aI0
aI0
aI0
aI0
aI0
aI0
aI0
aI0
aI0
aI0
aI0
aI0
aI0
aI0
aI0
aI0
aI0
aI0
aI0
aI0
aI0
aI0
aI0
aI0
aI0
aI0
aI0
aI0
aI0
aI0
aI0
aI0
aI0
aI0
aI0
aI0
aI0
aI0
aI0
aI0
aI0
aI0
aI0
aI0
aI0
aI0
aI0
aI0
aI0
aI0
aI0
aI0
aI0
aI0
aI0
aI0
aI0
aI0
aI0
aI0
aI0
aI0
aI0
aI0
aI0
aI0
aI0
aI0
aI0
aI0
aI0
aI0
aI0
aI0
aI0
aI0
aI0
aI0
aI0
aI0
aI0
aI0
aI0
aI0
aI0
aI0
aI0
aI0
aI0
aI0
aI0
aI0
aI0
aI0
aI0
aI0
aI0
aI0
aI0
aI0
aI0
aI0
aI0
aI0
aI0
aI0
aI0
aI0
aI0
aI0
aI0
aI0
aI0
aI0
aI0
aI0
aI0
aI0
aI0
aI0
aI0
aI0
aI0
aI0
aI0
aI0
aI0
aI0
aI0
aI0
aI0
aI0
aI0
aI0
aI0
aI0
aI0
aI0
aI0
aI0
aI0
aI0
aI0
aI0
aI0
aI0
aI0
aI0
aI0
aI0
aI0
aI0
aI0
aI0
aI0
aI0
aI0
aI0
aI0
aI0
aI0
aI0
aI0
aI0
aI0
aI0
aI0
aI0
aI0
aI0
aI0
aI0
aI0
aI0
aI0
aI0
aI0
aI0
aI0
aI0
aI0
aI0
aI0
aI0
aI0
aI0
aI0
aI0
aI0
aI0
aI0
aI0
aI0
aI0
aI0
aI0
aI0
aI0
aI0
aI0
aI0
aI0
aI0
aI0
aI0
aI0
aI0
aI0
aI0
aI0
aI0
aI0
aI0
aI0
aI0
aI0
aI0
aI0
aI0
aI0
aI0
aI0
aI0
aI0
aI0
aI0
aI0
aI0
aI0
aI0
aI0
aI0
aI0
aI0
aI0
aI0
aI0
aI0
aI0
aI0
aI0
aI0
aI0
aI0
aI0
aI0
aI0
aI0
aI0
aI0
aI0
aI0
aI0
aI0
aI0
aI0
aI0
aI0
aI0
aI0
aI0
aI0
aI0
aI0
aI0
aI0
aI0
aI0
aI0
aI0
aI0
aI0
aI0
aI0
aI0
aI0
aI0
aI0
aI0
aI0
aI0
aI0
aI0
aI0
aI0
aI0
aI0
aI0
aI0
aI0
aI0
aI0
aI0
aI0
aI0
aI0
aI0
aI0
aI0
aI0
aI0
aI0
aI0
aI0
aI0
aI0
aI0
aI0
aI0
aI0
aI0
aI0
aI0
aI0
aI0
aI0
aI0
aI0
aI0
aI0
aI0
aI0
aI0
aI0
aI0
aI0
aI0
aI0
aI0
aI0
aI0
aI0
aI0
aI0
aI0
aI0
aI0
aI0
aI0
aI0
aI0
aI0
aI0
aI0
aI0
aI0
aI0
a.