(lp0
F0.16583251953125
aF0.1658310546875
aF0.1657060546875
aF0.16570605468750002
aF0.1655810546875
aF0.16558105468750003
aF0.16545605468750002
aF0.16545605468750005
aF0.16533105468750003
aF0.16533105468750006
aF0.16520605468750005
aF0.16520605468750008
aF0.16508105468750006
aF0.1650810546875001
aF0.16495605468750008
aF0.1649560546875001
aF0.1648310546875001
aF0.16483105468750012
aF0.16483105468750012
aF0.1647060546875001
aF0.16470605468750013
aF0.16458105468750012
aF0.16458105468750014
aF0.16445605468750013
aF0.16445605468750016
aF0.16433105468750014
aF0.16433105468750017
aF0.16420605468750016
aF0.16420605468750019
aF0.16408105468750017
aF0.1640810546875002
aF0.16395605468750019
aF0.1639560546875002
aF0.1638310546875002
aF0.16383105468750023
aF0.1637060546875002
aF0.16370605468750024
aF0.16358105468750023
aF0.16358105468750025
aF0.16345605468750024
aF0.16345605468750027
aF0.16333105468750025
aF0.16333105468750028
aF0.16320605468750027
aF0.1632060546875003
aF0.16308105468750028
aF0.1630810546875003
aF0.1629560546875003
aF0.16295605468750032
aF0.1628310546875003
aF0.16283105468750034
aF0.16270605468750032
aF0.16270605468750035
aF0.16258105468750034
aF0.16258105468750036
aF0.16245605468750035
aF0.16245605468750038
aF0.16233105468750036
aF0.1623310546875004
aF0.16220605468750038
aF0.1622060546875004
aF0.1620810546875004
aF0.16208105468750042
aF0.1619560546875004
aF0.16195605468750043
aF0.16183105468750042
aF0.16183105468750045
aF0.16170605468750043
aF0.16170605468750046
aF0.16158105468750045
aF0.16158105468750047
aF0.16145605468750046
aF0.1614560546875005
aF0.16133105468750047
aF0.1613310546875005
aF0.1612060546875005
aF0.16120605468750052
aF0.1610810546875005
aF0.16108105468750053
aF0.16095605468750052
aF0.16095605468750054
aF0.16083105468750053
aF0.16083105468750056
aF0.16070605468750054
aF0.16070605468750057
aF0.16058105468750056
aF0.16058105468750059
aF0.16045605468750057
aF0.1604560546875006
aF0.16033105468750058
aF0.1603310546875006
aF0.1602060546875006
aF0.16020605468750063
aF0.1600810546875006
aF0.16008105468750064
aF0.15995605468750063
aF0.15995605468750065
aF0.15983105468750064
aF0.15983105468750067
aF0.15970605468750065
aF0.15970605468750068
aF0.15958105468750067
aF0.1595810546875007
aF0.15945605468750068
aF0.1593310546875007
aF0.15933105468750072
aF0.1592060546875007
aF0.15920605468750074
aF0.15908105468750072
aF0.15908105468750075
aF0.15895605468750074
aF0.15895605468750076
aF0.15883105468750075
aF0.15883105468750078
aF0.15870605468750076
aF0.1587060546875008
aF0.15858105468750078
aF0.1585810546875008
aF0.1584560546875008
aF0.15845605468750082
aF0.1583310546875008
aF0.15820605468750082
aF0.15820605468750085
aF0.15808105468750083
aF0.15808105468750086
aF0.15795605468750085
aF0.15795605468750087
aF0.15783105468750086
aF0.1578310546875009
aF0.15770605468750087
aF0.1577060546875009
aF0.1575810546875009
aF0.15758105468750092
aF0.1574560546875009
aF0.15733105468750092
aF0.15733105468750094
aF0.15720605468750093
aF0.15720605468750096
aF0.15708105468750094
aF0.15708105468750097
aF0.15695605468750096
aF0.15695605468750098
aF0.15683105468750097
aF0.156831054687501
aF0.15670605468750098
aF0.156581054687501
aF0.15658105468750103
aF0.156456054687501
aF0.15645605468750104
aF0.15633105468750103
aF0.15633105468750105
aF0.15620605468750104
aF0.15620605468750107
aF0.15608105468750105
aF0.15595605468750107
aF0.1559560546875011
aF0.15583105468750108
aF0.1558310546875011
aF0.1557060546875011
aF0.15570605468750112
aF0.1555810546875011
aF0.15558105468750114
aF0.15545605468750112
aF0.15533105468750114
aF0.15533105468750116
aF0.15520605468750115
aF0.15520605468750118
aF0.15508105468750116
aF0.1550810546875012
aF0.15495605468750118
aF0.1548310546875012
aF0.15483105468750122
aF0.1547060546875012
aF0.15470605468750123
aF0.15458105468750122
aF0.15458105468750125
aF0.15445605468750123
aF0.15433105468750125
aF0.15433105468750127
aF0.15420605468750126
aF0.1542060546875013
aF0.15408105468750127
aF0.1540810546875013
aF0.1539560546875013
aF0.1538310546875013
aF0.15383105468750133
aF0.15370605468750131
aF0.15370605468750134
aF0.15358105468750133
aF0.15358105468750136
aF0.15345605468750134
aF0.15333105468750136
aF0.15333105468750138
aF0.15320605468750137
aF0.1532060546875014
aF0.15308105468750138
aF0.1529560546875014
aF0.15295605468750142
aF0.1528310546875014
aF0.15283105468750144
aF0.15270605468750142
aF0.15258105468750144
aF0.15258105468750147
aF0.15245605468750145
aF0.15245605468750148
aF0.15233105468750147
aF0.15220605468750148
aF0.1522060546875015
aF0.1520810546875015
aF0.15208105468750152
aF0.1519560546875015
aF0.15195605468750153
aF0.15183105468750152
aF0.15170605468750153
aF0.15170605468750156
aF0.15158105468750155
aF0.15145605468750156
aF0.1514560546875016
aF0.15133105468750158
aF0.1513310546875016
aF0.1512060546875016
aF0.1510810546875016
aF0.15108105468750163
aF0.15095605468750162
aF0.15095605468750165
aF0.15083105468750163
aF0.15070605468750164
aF0.15070605468750167
aF0.15058105468750166
aF0.1505810546875017
aF0.15045605468750167
aF0.1503310546875017
aF0.15033105468750171
aF0.1502060546875017
aF0.1500810546875017
aF0.15008105468750174
aF0.14995605468750173
aF0.14995605468750176
aF0.14983105468750174
aF0.14970605468750176
aF0.14970605468750178
aF0.14958105468750177
aF0.14945605468750178
aF0.1494560546875018
aF0.1493310546875018
aF0.14933105468750182
aF0.1492060546875018
aF0.14908105468750182
aF0.14908105468750185
aF0.14895605468750184
aF0.14883105468750185
aF0.14883105468750188
aF0.14870605468750187
aF0.14858105468750188
aF0.1485810546875019
aF0.1484560546875019
aF0.14845605468750192
aF0.1483310546875019
aF0.14820605468750192
aF0.14820605468750195
aF0.14808105468750193
aF0.14795605468750195
aF0.14795605468750198
aF0.14783105468750196
aF0.14770605468750198
aF0.147706054687502
aF0.147581054687502
aF0.147456054687502
aF0.14745605468750203
aF0.14733105468750202
aF0.14720605468750203
aF0.14720605468750206
aF0.14708105468750204
aF0.14695605468750206
aF0.14695605468750209
aF0.14683105468750207
aF0.14670605468750209
aF0.1467060546875021
aF0.1465810546875021
aF0.1464560546875021
aF0.14645605468750214
aF0.14633105468750213
aF0.14620605468750214
aF0.14620605468750217
aF0.14608105468750215
aF0.14595605468750217
aF0.1459560546875022
aF0.14583105468750218
aF0.1457060546875022
aF0.14570605468750222
aF0.1455810546875022
aF0.14545605468750222
aF0.14545605468750225
aF0.14533105468750224
aF0.14520605468750225
aF0.14520605468750228
aF0.14508105468750226
aF0.14495605468750228
aF0.1449560546875023
aF0.1448310546875023
aF0.1447060546875023
aF0.14458105468750232
aF0.14458105468750235
aF0.14445605468750233
aF0.14433105468750235
aF0.14433105468750237
aF0.14420605468750236
aF0.14408105468750237
aF0.1440810546875024
aF0.1439560546875024
aF0.1438310546875024
aF0.14370605468750242
aF0.14370605468750244
aF0.14358105468750243
aF0.14345605468750244
aF0.14345605468750247
aF0.14333105468750246
aF0.14320605468750247
aF0.1432060546875025
aF0.14308105468750248
aF0.1429560546875025
aF0.1428310546875025
aF0.14283105468750254
aF0.14270605468750253
aF0.14258105468750254
aF0.14245605468750255
aF0.14245605468750258
aF0.14233105468750257
aF0.14220605468750258
aF0.1422060546875026
aF0.1420810546875026
aF0.1419560546875026
aF0.14183105468750262
aF0.14183105468750265
aF0.14170605468750264
aF0.14158105468750265
aF0.14145605468750266
aF0.1414560546875027
aF0.14133105468750268
aF0.1412060546875027
aF0.1410810546875027
aF0.14108105468750273
aF0.14095605468750272
aF0.14083105468750273
aF0.14070605468750275
aF0.14070605468750277
aF0.14058105468750276
aF0.14045605468750277
aF0.1403310546875028
aF0.14033105468750282
aF0.1402060546875028
aF0.14008105468750282
aF0.13995605468750283
aF0.13995605468750286
aF0.13983105468750284
aF0.13970605468750286
aF0.13958105468750287
aF0.13945605468750288
aF0.1394560546875029
aF0.1393310546875029
aF0.1392060546875029
aF0.13908105468750293
aF0.13908105468750295
aF0.13895605468750294
aF0.13883105468750295
aF0.13870605468750297
aF0.13858105468750298
aF0.138581054687503
aF0.138456054687503
aF0.138331054687503
aF0.13820605468750302
aF0.13808105468750304
aF0.13808105468750306
aF0.13795605468750305
aF0.13783105468750306
aF0.13770605468750308
aF0.1375810546875031
aF0.13758105468750312
aF0.1374560546875031
aF0.13733105468750312
aF0.13720605468750313
aF0.13708105468750315
aF0.13708105468750317
aF0.13695605468750316
aF0.13683105468750317
aF0.1367060546875032
aF0.1365810546875032
aF0.13645605468750321
aF0.13645605468750324
aF0.13633105468750323
aF0.13620605468750324
aF0.13608105468750326
aF0.13595605468750327
aF0.13583105468750328
aF0.1358310546875033
aF0.1357060546875033
aF0.1355810546875033
aF0.13545605468750332
aF0.13533105468750334
aF0.13520605468750335
aF0.13508105468750337
aF0.1350810546875034
aF0.13495605468750338
aF0.1348310546875034
aF0.1347060546875034
aF0.13458105468750342
aF0.13445605468750343
aF0.13433105468750345
aF0.13420605468750346
aF0.1342060546875035
aF0.13408105468750348
aF0.1339560546875035
aF0.1338310546875035
aF0.13370605468750352
aF0.13358105468750353
aF0.13345605468750354
aF0.13333105468750356
aF0.13320605468750357
aF0.1332060546875036
aF0.13308105468750359
aF0.1329560546875036
aF0.1328310546875036
aF0.13270605468750363
aF0.13258105468750364
aF0.13245605468750365
aF0.13233105468750367
aF0.13220605468750368
aF0.1320810546875037
aF0.1319560546875037
aF0.13183105468750372
aF0.13183105468750375
aF0.13170605468750374
aF0.13158105468750375
aF0.13145605468750376
aF0.13133105468750378
aF0.1312060546875038
aF0.1310810546875038
aF0.13095605468750382
aF0.13083105468750383
aF0.13070605468750385
aF0.13058105468750386
aF0.13045605468750388
aF0.1303310546875039
aF0.1302060546875039
aF0.13008105468750392
aF0.12995605468750393
aF0.12983105468750394
aF0.12970605468750396
aF0.12958105468750397
aF0.12945605468750399
aF0.129331054687504
aF0.129206054687504
aF0.12908105468750403
aF0.12895605468750404
aF0.12883105468750405
aF0.12870605468750407
aF0.12858105468750408
aF0.1284560546875041
aF0.1283310546875041
aF0.12820605468750412
aF0.12808105468750414
aF0.12795605468750415
aF0.12783105468750416
aF0.12770605468750418
aF0.1275810546875042
aF0.1274560546875042
aF0.12733105468750422
aF0.12720605468750423
aF0.12708105468750425
aF0.12695605468750426
aF0.12683105468750427
aF0.1267060546875043
aF0.12645605468750432
aF0.1263310546875043
aF0.1262060546875043
aF0.1260810546875043
aF0.12595605468750432
aF0.12583105468750433
aF0.12570605468750434
aF0.12558105468750436
aF0.12545605468750437
aF0.12533105468750438
aF0.1250810546875044
aF0.1249560546875044
aF0.12483105468750438
aF0.1247060546875044
aF0.12458105468750438
aF0.1244560546875044
aF0.12433105468750438
aF0.1242060546875044
aF0.1239560546875044
aF0.12383105468750438
aF0.1237060546875044
aF0.12358105468750438
aF0.1234560546875044
aF0.1232060546875044
aF0.12308105468750438
aF0.1229560546875044
aF0.12283105468750438
aF0.1227060546875044
aF0.1224560546875044
aF0.12233105468750438
aF0.1222060546875044
aF0.12208105468750438
aF0.1219560546875044
aF0.1217060546875044
aF0.12158105468750438
aF0.1214560546875044
aF0.12133105468750438
aF0.12108105468750438
aF0.1209560546875044
aF0.12083105468750438
aF0.12058105468750438
aF0.1204560546875044
aF0.12033105468750438
aF0.1202060546875044
aF0.1199560546875044
aF0.11983105468750438
aF0.11970605468750439
aF0.11945605468750439
aF0.11933105468750438
aF0.11908105468750438
aF0.11895605468750439
aF0.11883105468750438
aF0.11858105468750438
aF0.11845605468750439
aF0.11833105468750438
aF0.11808105468750438
aF0.11795605468750439
aF0.11770605468750439
aF0.11758105468750438
aF0.11733105468750438
aF0.11720605468750439
aF0.11708105468750438
aF0.11683105468750438
aF0.11670605468750439
aF0.11645605468750439
aF0.11633105468750438
aF0.11608105468750438
aF0.11595605468750439
aF0.11570605468750439
aF0.11545605468750439
aF0.11533105468750438
aF0.11508105468750437
aF0.11495605468750439
aF0.11470605468750439
aF0.11458105468750437
aF0.11433105468750437
aF0.11408105468750437
aF0.11395605468750439
aF0.11370605468750439
aF0.11345605468750439
aF0.11333105468750437
aF0.11308105468750437
aF0.11283105468750437
aF0.11258105468750437
aF0.11245605468750439
aF0.11220605468750439
aF0.11195605468750439
aF0.11170605468750439
aF0.11145605468750439
aF0.11133105468750437
aF0.11108105468750437
aF0.11083105468750437
aF0.11058105468750437
aF0.11033105468750437
aF0.11008105468750437
aF0.10983105468750437
aF0.10958105468750437
aF0.10933105468750437
aF0.10908105468750437
aF0.10883105468750437
aF0.10858105468750437
aF0.10833105468750437
aF0.10808105468750437
aF0.10770605468750438
aF0.10745605468750438
aF0.10720605468750438
aF0.10695605468750438
aF0.10658105468750437
aF0.10633105468750437
aF0.10608105468750437
aF0.10570605468750438
aF0.10545605468750438
aF0.10508105468750437
aF0.10483105468750437
aF0.10445605468750438
aF0.10420605468750438
aF0.10383105468750436
aF0.10345605468750438
aF0.10308105468750436
aF0.10270605468750438
aF0.10245605468750438
aF0.10208105468750436
aF0.10164480686188179
aF0.1013070564270063
aF0.10087458788976505
aF0.10048054653082067
aF0.10008804439593466
aF0.09950139917129122
aF0.09916173732190212
aF0.09873974397560377
aF0.09816100153303331
aF0.09777774863673011
aF0.09720464472946211
aF0.09663508626425041
aF0.09606886505567082
aF0.09550596154948525
aF0.09494635630603124
aF0.09420440555510702
aF0.0936526078901791
aF0.09292076703336766
aF0.09219482354091948
aF0.09147455148200606
aF0.09058106929427001
aF0.08969648853944315
aF0.08882054626855015
aF0.08777950924060386
aF0.08675084311669054
aF0.08556462884172314
aF0.08422751588830539
aF0.08291146095255061
aF0.08129177485927756
aF0.07954511358568181
aF0.07752510302335808
aF0.07525355602705597
aF0.072607479150845
aF0.06934509665179667
aF0.06555209353821193
aF0.060685575089379926
aF0.05440179245561581
aF0.046004753245159624
aF0.033733841258050914
aF0.013939104323170456
aF5.470768136315419e-05
aF2.7353840681577094e-05
aF1.3676920340788547e-05
aF6.8384601703942735e-06
aF3.4192300851971367e-06
aF1.7096150425985684e-06
aF8.548075212992842e-07
aF4.274037606496421e-07
aF2.1370188032482105e-07
aF1.0685094016241052e-07
aF5.342547008120526e-08
aF2.671273504060263e-08
aI0
aI0
aI0
aI0
aI0
aI0
aI0
aI0
aI0
aI0
aI0
aI0
aI0
aI0
aI0
aI0
aI0
aI0
aI0
aI0
aI0
aI0
aI0
aI0
aI0
aI0
aI0
aI0
aI0
aI0
aI0
aI0
aI0
aI0
aI0
aI0
aI0
aI0
aI0
aI0
aI0
aI0
aI0
aI0
aI0
aI0
aI0
aI0
aI0
aI0
aI0
aI0
aI0
aI0
aI0
aI0
aI0
aI0
aI0
aI0
aI0
aI0
aI0
aI0
aI0
aI0
aI0
aI0
aI0
aI0
aI0
aI0
aI0
aI0
aI0
aI0
aI0
aI0
aI0
aI0
aI0
aI0
aI0
aI0
aI0
aI0
aI0
aI0
aI0
aI0
aI0
aI0
aI0
aI0
aI0
aI0
aI0
aI0
aI0
aI0
aI0
aI0
aI0
aI0
aI0
aI0
aI0
aI0
aI0
aI0
aI0
aI0
aI0
aI0
aI0
aI0
aI0
aI0
aI0
aI0
aI0
aI0
aI0
aI0
aI0
aI0
aI0
aI0
aI0
aI0
aI0
aI0
aI0
aI0
aI0
aI0
aI0
aI0
aI0
aI0
aI0
aI0
aI0
aI0
aI0
aI0
aI0
aI0
aI0
aI0
aI0
aI0
aI0
aI0
aI0
aI0
aI0
aI0
aI0
aI0
aI0
aI0
aI0
aI0
aI0
aI0
aI0
aI0
aI0
aI0
aI0
aI0
aI0
aI0
aI0
aI0
aI0
aI0
aI0
aI0
aI0
aI0
aI0
aI0
aI0
aI0
aI0
aI0
aI0
aI0
aI0
aI0
aI0
aI0
aI0
aI0
aI0
aI0
aI0
aI0
aI0
aI0
aI0
aI0
aI0
aI0
aI0
aI0
aI0
aI0
aI0
aI0
aI0
aI0
aI0
aI0
aI0
aI0
aI0
aI0
aI0
aI0
aI0
aI0
aI0
aI0
aI0
aI0
aI0
aI0
aI0
aI0
aI0
aI0
aI0
aI0
aI0
aI0
aI0
aI0
aI0
aI0
aI0
aI0
aI0
aI0
aI0
aI0
aI0
aI0
aI0
aI0
aI0
aI0
aI0
aI0
aI0
aI0
aI0
aI0
aI0
aI0
aI0
aI0
aI0
aI0
aI0
aI0
aI0
aI0
aI0
aI0
aI0
aI0
aI0
aI0
aI0
aI0
aI0
aI0
aI0
aI0
aI0
aI0
aI0
aI0
aI0
aI0
aI0
aI0
aI0
aI0
aI0
aI0
aI0
aI0
aI0
aI0
aI0
aI0
aI0
aI0
aI0
aI0
aI0
aI0
aI0
aI0
aI0
aI0
aI0
aI0
aI0
aI0
aI0
aI0
aI0
aI0
aI0
aI0
aI0
aI0
aI0
aI0
aI0
aI0
aI0
aI0
aI0
aI0
aI0
aI0
aI0
aI0
aI0
aI0
aI0
aI0
aI0
aI0
aI0
aI0
aI0
aI0
aI0
aI0
aI0
aI0
aI0
aI0
aI0
aI0
aI0
a.