(lp0
F0.11566162109375
aF0.11566015625
aF0.11553515624999999
aF0.11541015625
aF0.11528515624999999
aF0.11516015625
aF0.11516015625
aF0.11503515624999999
aF0.11491015625
aF0.11478515624999999
aF0.11478515624999999
aF0.11466015625
aF0.11453515624999999
aF0.11441015625
aF0.11428515624999999
aF0.11428515624999999
aF0.11416015625
aF0.11403515624999999
aF0.11391015625
aF0.11378515624999999
aF0.11366015625
aF0.11366015625
aF0.11353515624999999
aF0.11341015625
aF0.11328515624999999
aF0.11316015625
aF0.11316015625
aF0.11303515624999999
aF0.11291015625
aF0.11278515624999999
aF0.11266015625
aF0.11253515624999999
aF0.11253515624999999
aF0.11241015625
aF0.11228515624999999
aF0.11216015625
aF0.11203515624999999
aF0.11191015625
aF0.11191015625
aF0.11178515624999999
aF0.11166015625
aF0.11153515624999999
aF0.11141015625
aF0.11128515624999999
aF0.11116015625
aF0.11116015625
aF0.11103515624999999
aF0.11091015625
aF0.11078515624999999
aF0.11066015625
aF0.11053515624999999
aF0.11041015625
aF0.11028515624999999
aF0.11028515624999999
aF0.11016015625
aF0.11003515624999999
aF0.10991015625
aF0.10978515624999999
aF0.10966015625
aF0.10953515624999999
aF0.10941015625
aF0.10941015625
aF0.10928515624999999
aF0.10916015625
aF0.10903515624999999
aF0.10891015625
aF0.10878515624999999
aF0.10866015625
aF0.10853515624999999
aF0.10841015625
aF0.10828515624999999
aF0.10816015625
aF0.10816015625
aF0.10803515624999999
aF0.10791015625
aF0.10778515624999999
aF0.10766015625
aF0.10753515624999999
aF0.10741015625
aF0.10728515624999999
aF0.10716015625
aF0.10703515624999999
aF0.10691015625
aF0.10678515624999999
aF0.10666015625
aF0.10653515624999998
aF0.10641015625
aF0.10628515624999998
aF0.10616015625
aF0.10603515624999998
aF0.10603515624999998
aF0.10591015625
aF0.10578515624999998
aF0.10566015625
aF0.10553515624999998
aF0.10541015625
aF0.10528515624999998
aF0.10516015625
aF0.10503515624999998
aF0.10491015625
aF0.10478515624999998
aF0.10466015625
aF0.10453515624999998
aF0.10441015625
aF0.10428515624999998
aF0.10416015625
aF0.10403515624999998
aF0.10391015625
aF0.10378515624999998
aF0.10366015625
aF0.10341015625
aF0.10328515624999998
aF0.10316015625
aF0.10303515624999998
aF0.10291015625
aF0.10278515624999998
aF0.10266015625
aF0.10253515624999998
aF0.10241015625
aF0.10228515624999998
aF0.10216015625
aF0.10203515624999998
aF0.10191015625
aF0.10178515624999998
aF0.10166015625
aF0.10153515624999998
aF0.10141015625
aF0.10116015625
aF0.10103515624999998
aF0.10091015625
aF0.10078515624999998
aF0.10066015625
aF0.10053515624999998
aF0.10041015625
aF0.10028515624999998
aF0.10016015625
aF0.09991015624999999
aF0.09978515624999998
aF0.09966015624999999
aF0.09953515624999998
aF0.09941015624999999
aF0.09928515624999998
aF0.09903515624999998
aF0.09891015624999999
aF0.09878515624999998
aF0.09866015624999999
aF0.09853515624999998
aF0.09841015624999999
aF0.09816015624999999
aF0.09803515624999998
aF0.09791015624999999
aF0.09778515624999998
aF0.09766015624999999
aF0.09741015624999999
aF0.09728515624999998
aF0.09716015624999999
aF0.09703515624999998
aF0.09678515624999998
aF0.09666015624999999
aF0.09653515624999998
aF0.09641015624999999
aF0.09616015624999999
aF0.09603515624999998
aF0.09591015624999999
aF0.09578515624999998
aF0.09553515624999998
aF0.09541015624999999
aF0.09528515624999997
aF0.09503515624999997
aF0.09491015624999999
aF0.09478515624999997
aF0.09466015624999999
aF0.09441015624999999
aF0.09428515624999997
aF0.09416015624999999
aF0.09391015624999999
aF0.09378515624999997
aF0.09353515624999997
aF0.09341015624999999
aF0.09328515624999997
aF0.09303515624999997
aF0.09291015624999999
aF0.09266015624999999
aF0.09253515624999997
aF0.09241015624999999
aF0.09216015624999999
aF0.09203515624999997
aF0.09178515624999997
aF0.09166015624999999
aF0.09141015624999999
aF0.09128515624999997
aF0.09103515624999997
aF0.09091015624999998
aF0.09066015624999998
aF0.09053515624999997
aF0.09028515624999997
aF0.09016015624999998
aF0.08991015624999998
aF0.08978515624999997
aF0.08953515624999997
aF0.08941015624999998
aF0.08916015624999998
aF0.08891015624999998
aF0.08878515624999997
aF0.08853515624999997
aF0.08841015624999998
aF0.08816015624999998
aF0.08791015624999998
aF0.08778515624999997
aF0.08753515624999997
aF0.08728515624999997
aF0.08703515624999997
aF0.08691015624999998
aF0.08666015624999998
aF0.08641015624999998
aF0.08616015624999998
aF0.08603515624999997
aF0.08578515624999997
aF0.08553515624999997
aF0.08528515624999997
aF0.08503515624999997
aF0.08478515624999997
aF0.08453515624999997
aF0.08441015624999998
aF0.08416015624999998
aF0.08391015624999998
aF0.08366015624999998
aF0.08341015624999998
aF0.08316015624999998
aF0.08291015624999998
aF0.08253515624999996
aF0.08228515624999996
aF0.08203515624999996
aF0.08178515624999996
aF0.08153515624999996
aF0.08128515624999996
aF0.08091015624999998
aF0.08066015624999998
aF0.08041015624999998
aF0.08003515624999996
aF0.07978515624999996
aF0.07953515624999996
aF0.07916015624999997
aF0.07891015624999997
aF0.07853515624999996
aF0.07828515624999996
aF0.07791015624999997
aF0.07753515624999996
aF0.07716015624999997
aF0.07691015624999997
aF0.07653515624999996
aF0.07616015624999997
aF0.07578515624999996
aF0.07541015624999997
aF0.07503515624999996
aF0.07458429336547848
aF0.07414727602154013
aF0.07371281932610141
aF0.07328090827536253
aF0.07285152795343658
aF0.0722822354816243
aF0.07185884584799193
aF0.0712973106115515
aF0.07074030037239877
aF0.07018764177573941
aF0.06950208052717555
aF0.06882334927202735
aF0.0681512462517927
aF0.06735246743507284
aF0.06656318070731806
aF0.06565300862938162
aF0.06449869766752916
aF0.06323883213142775
aF0.06150915273968495
aF0.05934623863364947
aF0.055867510716021154
aF0.049317137544427694
aF0.026325172620917256
aF5.160469106378297e-05
aF2.5802345531891485e-05
aF1.2901172765945742e-05
aF6.450586382972871e-06
aF3.2252931914864356e-06
aF1.6126465957432178e-06
aF8.063232978716089e-07
aF4.0316164893580445e-07
aF2.0158082446790222e-07
aF1.0079041223395111e-07
aF5.0395206116975556e-08
aF2.5197603058487778e-08
aI0
aI0
aI0
aI0
aI0
aI0
aI0
aI0
aI0
aI0
aI0
aI0
aI0
aI0
aI0
aI0
aI0
aI0
aI0
aI0
aI0
aI0
aI0
aI0
aI0
aI0
aI0
aI0
aI0
aI0
aI0
aI0
aI0
aI0
aI0
aI0
aI0
aI0
aI0
aI0
aI0
aI0
aI0
aI0
aI0
aI0
aI0
aI0
aI0
aI0
aI0
aI0
aI0
aI0
aI0
aI0
aI0
aI0
aI0
aI0
aI0
aI0
aI0
aI0
aI0
aI0
aI0
aI0
aI0
aI0
aI0
aI0
aI0
aI0
aI0
aI0
aI0
aI0
aI0
aI0
aI0
aI0
aI0
aI0
aI0
aI0
aI0
aI0
aI0
aI0
aI0
aI0
aI0
aI0
aI0
aI0
aI0
aI0
aI0
aI0
aI0
aI0
aI0
aI0
aI0
aI0
aI0
aI0
aI0
aI0
aI0
aI0
aI0
aI0
aI0
aI0
aI0
aI0
aI0
aI0
aI0
aI0
aI0
aI0
aI0
aI0
aI0
aI0
aI0
aI0
aI0
aI0
aI0
aI0
aI0
aI0
aI0
aI0
aI0
aI0
aI0
aI0
aI0
aI0
aI0
aI0
aI0
aI0
aI0
aI0
aI0
aI0
aI0
aI0
aI0
aI0
aI0
aI0
aI0
aI0
aI0
aI0
aI0
aI0
aI0
aI0
aI0
aI0
aI0
aI0
aI0
aI0
aI0
aI0
aI0
aI0
aI0
aI0
aI0
aI0
aI0
aI0
aI0
aI0
aI0
aI0
aI0
aI0
aI0
aI0
aI0
aI0
aI0
aI0
aI0
aI0
aI0
aI0
aI0
aI0
aI0
aI0
aI0
aI0
aI0
aI0
aI0
aI0
aI0
aI0
aI0
aI0
aI0
aI0
aI0
aI0
aI0
aI0
aI0
aI0
aI0
aI0
aI0
aI0
aI0
aI0
aI0
aI0
aI0
aI0
aI0
aI0
aI0
aI0
aI0
aI0
aI0
aI0
aI0
aI0
aI0
aI0
aI0
aI0
aI0
aI0
aI0
aI0
aI0
aI0
aI0
aI0
aI0
aI0
aI0
aI0
aI0
aI0
aI0
aI0
aI0
aI0
aI0
aI0
aI0
aI0
aI0
aI0
aI0
aI0
aI0
aI0
aI0
aI0
aI0
aI0
aI0
aI0
aI0
aI0
aI0
aI0
aI0
aI0
aI0
aI0
aI0
aI0
aI0
aI0
aI0
aI0
aI0
aI0
aI0
aI0
aI0
aI0
aI0
aI0
aI0
aI0
aI0
aI0
aI0
aI0
aI0
aI0
aI0
aI0
aI0
aI0
aI0
aI0
aI0
aI0
aI0
aI0
aI0
aI0
aI0
aI0
aI0
aI0
aI0
aI0
aI0
aI0
aI0
aI0
aI0
aI0
aI0
aI0
aI0
aI0
aI0
aI0
aI0
aI0
aI0
aI0
aI0
aI0
aI0
aI0
aI0
aI0
aI0
aI0
aI0
aI0
aI0
aI0
aI0
aI0
aI0
aI0
aI0
aI0
aI0
aI0
aI0
aI0
aI0
aI0
aI0
aI0
aI0
aI0
aI0
aI0
aI0
aI0
aI0
aI0
aI0
aI0
aI0
aI0
aI0
aI0
aI0
aI0
aI0
aI0
aI0
aI0
aI0
aI0
aI0
aI0
aI0
aI0
aI0
aI0
aI0
aI0
aI0
aI0
aI0
aI0
aI0
aI0
aI0
aI0
aI0
aI0
aI0
aI0
aI0
aI0
aI0
aI0
aI0
aI0
aI0
aI0
aI0
aI0
aI0
aI0
aI0
aI0
aI0
aI0
aI0
aI0
aI0
aI0
aI0
aI0
aI0
aI0
aI0
aI0
aI0
aI0
aI0
aI0
aI0
aI0
aI0
aI0
aI0
aI0
aI0
aI0
aI0
aI0
aI0
aI0
aI0
aI0
aI0
aI0
aI0
aI0
aI0
aI0
aI0
aI0
aI0
aI0
aI0
aI0
aI0
aI0
aI0
aI0
aI0
aI0
aI0
aI0
aI0
aI0
aI0
aI0
aI0
aI0
aI0
aI0
aI0
aI0
aI0
aI0
aI0
aI0
aI0
aI0
aI0
aI0
aI0
aI0
aI0
aI0
aI0
aI0
aI0
aI0
aI0
aI0
aI0
aI0
aI0
aI0
aI0
aI0
aI0
aI0
aI0
aI0
aI0
aI0
aI0
aI0
aI0
aI0
aI0
aI0
aI0
aI0
aI0
aI0
aI0
aI0
aI0
aI0
aI0
aI0
aI0
aI0
aI0
aI0
aI0
aI0
aI0
aI0
aI0
aI0
aI0
aI0
aI0
aI0
aI0
aI0
aI0
aI0
aI0
aI0
aI0
aI0
aI0
aI0
aI0
aI0
aI0
aI0
aI0
aI0
aI0
aI0
aI0
aI0
aI0
aI0
aI0
aI0
aI0
aI0
aI0
aI0
aI0
aI0
aI0
aI0
aI0
aI0
aI0
aI0
aI0
aI0
aI0
aI0
aI0
aI0
aI0
aI0
aI0
aI0
aI0
aI0
aI0
aI0
aI0
aI0
aI0
aI0
aI0
aI0
aI0
aI0
aI0
aI0
aI0
aI0
aI0
aI0
aI0
aI0
aI0
aI0
aI0
aI0
aI0
aI0
aI0
aI0
aI0
aI0
aI0
aI0
aI0
aI0
aI0
aI0
aI0
aI0
aI0
aI0
aI0
aI0
aI0
aI0
aI0
aI0
aI0
aI0
aI0
aI0
aI0
aI0
aI0
aI0
aI0
aI0
aI0
aI0
aI0
aI0
aI0
aI0
aI0
aI0
aI0
aI0
aI0
aI0
aI0
aI0
aI0
aI0
aI0
aI0
aI0
aI0
aI0
aI0
aI0
aI0
aI0
aI0
aI0
aI0
aI0
aI0
aI0
aI0
aI0
aI0
aI0
aI0
aI0
aI0
aI0
aI0
aI0
aI0
aI0
aI0
aI0
aI0
aI0
aI0
aI0
aI0
aI0
aI0
aI0
aI0
aI0
aI0
aI0
aI0
aI0
aI0
aI0
aI0
aI0
a.