(lp0
F0.13323974609375
aF0.13311328125
aF0.13298828125
aF0.13298828125000003
aF0.13286328125000002
aF0.13273828125000003
aF0.13273828125000006
aF0.13261328125000005
aF0.13248828125000006
aF0.1324882812500001
aF0.13236328125000008
aF0.1322382812500001
aF0.13223828125000012
aF0.1321132812500001
aF0.13198828125000012
aF0.13198828125000014
aF0.13186328125000013
aF0.13173828125000014
aF0.13173828125000017
aF0.13161328125000016
aF0.13148828125000017
aF0.1314882812500002
aF0.13136328125000019
aF0.1312382812500002
aF0.13123828125000023
aF0.1311132812500002
aF0.13098828125000023
aF0.13098828125000025
aF0.13086328125000024
aF0.13073828125000025
aF0.13073828125000028
aF0.13061328125000027
aF0.13048828125000028
aF0.1304882812500003
aF0.1303632812500003
aF0.1302382812500003
aF0.13023828125000034
aF0.13011328125000032
aF0.12998828125000034
aF0.12998828125000036
aF0.12986328125000035
aF0.12973828125000036
aF0.1297382812500004
aF0.12961328125000038
aF0.1294882812500004
aF0.1293632812500004
aF0.12936328125000043
aF0.12923828125000042
aF0.12911328125000043
aF0.12911328125000046
aF0.12898828125000045
aF0.12886328125000046
aF0.1288632812500005
aF0.12873828125000047
aF0.1286132812500005
aF0.1284882812500005
aF0.12848828125000053
aF0.12836328125000052
aF0.12823828125000053
aF0.12823828125000056
aF0.12811328125000054
aF0.12798828125000056
aF0.12798828125000059
aF0.12786328125000057
aF0.12773828125000058
aF0.1276132812500006
aF0.12761328125000063
aF0.1274882812500006
aF0.12736328125000063
aF0.12723828125000064
aF0.12723828125000067
aF0.12711328125000065
aF0.12698828125000067
aF0.1269882812500007
aF0.12686328125000068
aF0.1267382812500007
aF0.1266132812500007
aF0.12661328125000074
aF0.12648828125000072
aF0.12636328125000074
aF0.12623828125000075
aF0.12623828125000078
aF0.12611328125000076
aF0.12598828125000078
aF0.1258632812500008
aF0.12586328125000082
aF0.1257382812500008
aF0.12561328125000082
aF0.12561328125000085
aF0.12548828125000083
aF0.12536328125000085
aF0.12523828125000086
aF0.1252382812500009
aF0.12511328125000087
aF0.1249882812500009
aF0.1248632812500009
aF0.12473828125000092
aF0.12473828125000092
aF0.1246132812500009
aF0.12448828125000092
aF0.1243632812500009
aF0.1243632812500009
aF0.12423828125000091
aF0.1241132812500009
aF0.12398828125000091
aF0.12398828125000091
aF0.1238632812500009
aF0.12373828125000091
aF0.1236132812500009
aF0.12348828125000091
aF0.12348828125000091
aF0.1233632812500009
aF0.12323828125000091
aF0.1231132812500009
aF0.1231132812500009
aF0.12298828125000091
aF0.1228632812500009
aF0.12273828125000091
aF0.1226132812500009
aF0.1226132812500009
aF0.12248828125000091
aF0.1223632812500009
aF0.12223828125000091
aF0.1221132812500009
aF0.1221132812500009
aF0.12198828125000091
aF0.1218632812500009
aF0.12173828125000091
aF0.1216132812500009
aF0.12148828125000091
aF0.12148828125000091
aF0.1213632812500009
aF0.12123828125000091
aF0.1211132812500009
aF0.12098828125000091
aF0.12098828125000091
aF0.1208632812500009
aF0.12073828125000091
aF0.1206132812500009
aF0.12048828125000091
aF0.1203632812500009
aF0.1203632812500009
aF0.12023828125000091
aF0.1201132812500009
aF0.11998828125000091
aF0.1198632812500009
aF0.11973828125000091
aF0.1196132812500009
aF0.1196132812500009
aF0.11948828125000091
aF0.1193632812500009
aF0.11923828125000091
aF0.1191132812500009
aF0.11898828125000091
aF0.1188632812500009
aF0.1188632812500009
aF0.11873828125000091
aF0.1186132812500009
aF0.11848828125000091
aF0.1183632812500009
aF0.11823828125000091
aF0.1181132812500009
aF0.11798828125000091
aF0.11798828125000091
aF0.1178632812500009
aF0.11773828125000091
aF0.1176132812500009
aF0.11748828125000091
aF0.1173632812500009
aF0.11723828125000091
aF0.1171132812500009
aF0.11698828125000091
aF0.1168632812500009
aF0.1168632812500009
aF0.11673828125000091
aF0.1166132812500009
aF0.11648828125000091
aF0.1163632812500009
aF0.11623828125000091
aF0.1161132812500009
aF0.11598828125000091
aF0.1158632812500009
aF0.11573828125000091
aF0.1156132812500009
aF0.11548828125000091
aF0.1153632812500009
aF0.1153632812500009
aF0.1152382812500009
aF0.11511328125000089
aF0.1149882812500009
aF0.11486328125000089
aF0.1147382812500009
aF0.11461328125000089
aF0.1144882812500009
aF0.11436328125000089
aF0.1142382812500009
aF0.11411328125000089
aF0.1139882812500009
aF0.11386328125000089
aF0.1137382812500009
aF0.11361328125000089
aF0.1134882812500009
aF0.11336328125000089
aF0.1132382812500009
aF0.11311328125000089
aF0.1129882812500009
aF0.11286328125000089
aF0.1127382812500009
aF0.11261328125000089
aF0.1124882812500009
aF0.11236328125000089
aF0.1122382812500009
aF0.11211328125000089
aF0.1119882812500009
aF0.11186328125000089
aF0.1117382812500009
aF0.11161328125000089
aF0.1114882812500009
aF0.11136328125000089
aF0.1112382812500009
aF0.11111328125000089
aF0.1109882812500009
aF0.11086328125000089
aF0.11061328125000089
aF0.1104882812500009
aF0.11036328125000089
aF0.1102382812500009
aF0.11011328125000089
aF0.1099882812500009
aF0.10986328125000089
aF0.1097382812500009
aF0.10961328125000089
aF0.1094882812500009
aF0.10936328125000089
aF0.1092382812500009
aF0.1089882812500009
aF0.10886328125000089
aF0.1087382812500009
aF0.10861328125000089
aF0.1084882812500009
aF0.10836328125000089
aF0.1082382812500009
aF0.10811328125000089
aF0.10786328125000089
aF0.1077382812500009
aF0.10761328125000089
aF0.1074882812500009
aF0.10736328125000089
aF0.1072382812500009
aF0.1069882812500009
aF0.10686328125000089
aF0.1067382812500009
aF0.10661328125000089
aF0.1064882812500009
aF0.1062382812500009
aF0.10611328125000088
aF0.1059882812500009
aF0.10586328125000088
aF0.1057382812500009
aF0.1054882812500009
aF0.10536328125000088
aF0.1052382812500009
aF0.10511328125000088
aF0.10486328125000088
aF0.1047382812500009
aF0.10461328125000088
aF0.1044882812500009
aF0.1042382812500009
aF0.10411328125000088
aF0.1039882812500009
aF0.1037382812500009
aF0.10361328125000088
aF0.1034882812500009
aF0.1032382812500009
aF0.10311328125000088
aF0.1029882812500009
aF0.1027382812500009
aF0.10261328125000088
aF0.1024882812500009
aF0.1022382812500009
aF0.10211328125000088
aF0.1019882812500009
aF0.1017382812500009
aF0.10161328125000088
aF0.10136328125000088
aF0.1012382812500009
aF0.10111328125000088
aF0.10086328125000088
aF0.1007382812500009
aF0.1004882812500009
aF0.10036328125000088
aF0.10011328125000088
aF0.0999882812500009
aF0.0997382812500009
aF0.09961328125000088
aF0.09936328125000088
aF0.09923828125000089
aF0.09898828125000089
aF0.09886328125000088
aF0.09861328125000088
aF0.09848828125000089
aF0.09823828125000089
aF0.09811328125000088
aF0.09786328125000088
aF0.09761328125000088
aF0.09748828125000089
aF0.09723828125000089
aF0.09711328125000088
aF0.09686328125000088
aF0.09661328125000088
aF0.09648828125000089
aF0.09623828125000089
aF0.09598828125000089
aF0.09573828125000089
aF0.09561328125000088
aF0.09536328125000088
aF0.09511328125000088
aF0.09486328125000087
aF0.09461328125000087
aF0.09448828125000089
aF0.09423828125000089
aF0.09398828125000089
aF0.09373828125000089
aF0.09348828125000089
aF0.09323828125000089
aF0.09298828125000089
aF0.09273828125000089
aF0.09248828125000089
aF0.09223828125000089
aF0.09198828125000089
aF0.09173828125000089
aF0.09148828125000089
aF0.09123828125000089
aF0.09098828125000089
aF0.09073828125000089
aF0.09048828125000088
aF0.09011328125000087
aF0.08986328125000087
aF0.08961328125000087
aF0.08923828125000088
aF0.08898828125000088
aF0.08873828125000088
aF0.08836328125000087
aF0.08811328125000087
aF0.08773828125000088
aF0.08748828125000088
aF0.08711328125000087
aF0.08673828125000088
aF0.08648828125000088
aF0.08611328125000087
aF0.08573828125000088
aF0.08536328125000087
aF0.08498828125000088
aF0.08461328125000087
aF0.08423828125000088
aF0.08386328125000087
aF0.0833520698547372
aF0.08299652862548915
aF0.08249124229699459
aF0.08213485462963668
aF0.08163545865072314
aF0.08115712588519156
aF0.08052292997882854
aF0.08005127088312436
aF0.07942571659273398
aF0.07880520318185323
aF0.07818953753199501
aF0.0775786817700263
aF0.07682092817422763
aF0.07592053480681044
aF0.07503084103954313
aF0.07400488380954598
aF0.07284841424849686
aF0.07156773442377698
aF0.06988994839230539
aF0.06770534094326225
aF0.06479532644699375
aF0.060490960584123475
aF0.052452798622014435
aF0.03133280417967553
aF6.129704172834436e-05
aF3.064852086417218e-05
aF1.532426043208609e-05
aF7.662130216043046e-06
aF3.831065108021523e-06
aF1.9155325540107614e-06
aF9.577662770053807e-07
aF4.788831385026903e-07
aF2.394415692513452e-07
aF1.197207846256726e-07
aF5.98603923128363e-08
aF2.993019615641815e-08
aI0
aI0
aI0
aI0
aI0
aI0
aI0
aI0
aI0
aI0
aI0
aI0
aI0
aI0
aI0
aI0
aI0
aI0
aI0
aI0
aI0
aI0
aI0
aI0
aI0
aI0
aI0
aI0
aI0
aI0
aI0
aI0
aI0
aI0
aI0
aI0
aI0
aI0
aI0
aI0
aI0
aI0
aI0
aI0
aI0
aI0
aI0
aI0
aI0
aI0
aI0
aI0
aI0
aI0
aI0
aI0
aI0
aI0
aI0
aI0
aI0
aI0
aI0
aI0
aI0
aI0
aI0
aI0
aI0
aI0
aI0
aI0
aI0
aI0
aI0
aI0
aI0
aI0
aI0
aI0
aI0
aI0
aI0
aI0
aI0
aI0
aI0
aI0
aI0
aI0
aI0
aI0
aI0
aI0
aI0
aI0
aI0
aI0
aI0
aI0
aI0
aI0
aI0
aI0
aI0
aI0
aI0
aI0
aI0
aI0
aI0
aI0
aI0
aI0
aI0
aI0
aI0
aI0
aI0
aI0
aI0
aI0
aI0
aI0
aI0
aI0
aI0
aI0
aI0
aI0
aI0
aI0
aI0
aI0
aI0
aI0
aI0
aI0
aI0
aI0
aI0
aI0
aI0
aI0
aI0
aI0
aI0
aI0
aI0
aI0
aI0
aI0
aI0
aI0
aI0
aI0
aI0
aI0
aI0
aI0
aI0
aI0
aI0
aI0
aI0
aI0
aI0
aI0
aI0
aI0
aI0
aI0
aI0
aI0
aI0
aI0
aI0
aI0
aI0
aI0
aI0
aI0
aI0
aI0
aI0
aI0
aI0
aI0
aI0
aI0
aI0
aI0
aI0
aI0
aI0
aI0
aI0
aI0
aI0
aI0
aI0
aI0
aI0
aI0
aI0
aI0
aI0
aI0
aI0
aI0
aI0
aI0
aI0
aI0
aI0
aI0
aI0
aI0
aI0
aI0
aI0
aI0
aI0
aI0
aI0
aI0
aI0
aI0
aI0
aI0
aI0
aI0
aI0
aI0
aI0
aI0
aI0
aI0
aI0
aI0
aI0
aI0
aI0
aI0
aI0
aI0
aI0
aI0
aI0
aI0
aI0
aI0
aI0
aI0
aI0
aI0
aI0
aI0
aI0
aI0
aI0
aI0
aI0
aI0
aI0
aI0
aI0
aI0
aI0
aI0
aI0
aI0
aI0
aI0
aI0
aI0
aI0
aI0
aI0
aI0
aI0
aI0
aI0
aI0
aI0
aI0
aI0
aI0
aI0
aI0
aI0
aI0
aI0
aI0
aI0
aI0
aI0
aI0
aI0
aI0
aI0
aI0
aI0
aI0
aI0
aI0
aI0
aI0
aI0
aI0
aI0
aI0
aI0
aI0
aI0
aI0
aI0
aI0
aI0
aI0
aI0
aI0
aI0
aI0
aI0
aI0
aI0
aI0
aI0
aI0
aI0
aI0
aI0
aI0
aI0
aI0
aI0
aI0
aI0
aI0
aI0
aI0
aI0
aI0
aI0
aI0
aI0
aI0
aI0
aI0
aI0
aI0
aI0
aI0
aI0
aI0
aI0
aI0
aI0
aI0
aI0
aI0
aI0
aI0
aI0
aI0
aI0
aI0
aI0
aI0
aI0
aI0
aI0
aI0
aI0
aI0
aI0
aI0
aI0
aI0
aI0
aI0
aI0
aI0
aI0
aI0
aI0
aI0
aI0
aI0
aI0
aI0
aI0
aI0
aI0
aI0
aI0
aI0
aI0
aI0
aI0
aI0
aI0
aI0
aI0
aI0
aI0
aI0
aI0
aI0
aI0
aI0
aI0
aI0
aI0
aI0
aI0
aI0
aI0
aI0
aI0
aI0
aI0
aI0
aI0
aI0
aI0
aI0
aI0
aI0
aI0
aI0
aI0
aI0
aI0
aI0
aI0
aI0
aI0
aI0
aI0
aI0
aI0
aI0
aI0
aI0
aI0
aI0
aI0
aI0
aI0
aI0
aI0
aI0
aI0
aI0
aI0
aI0
aI0
aI0
aI0
aI0
aI0
aI0
aI0
aI0
aI0
aI0
aI0
aI0
aI0
aI0
aI0
aI0
aI0
aI0
aI0
aI0
aI0
aI0
aI0
aI0
aI0
aI0
aI0
aI0
aI0
aI0
aI0
aI0
aI0
aI0
aI0
aI0
aI0
aI0
aI0
aI0
aI0
aI0
aI0
aI0
aI0
aI0
aI0
aI0
aI0
aI0
aI0
aI0
aI0
aI0
aI0
aI0
aI0
aI0
aI0
aI0
aI0
aI0
aI0
aI0
aI0
aI0
aI0
aI0
aI0
aI0
aI0
aI0
aI0
aI0
aI0
aI0
aI0
aI0
aI0
aI0
aI0
aI0
aI0
aI0
aI0
aI0
aI0
aI0
aI0
aI0
aI0
aI0
aI0
aI0
aI0
aI0
aI0
aI0
aI0
aI0
aI0
aI0
aI0
aI0
aI0
aI0
aI0
aI0
aI0
aI0
aI0
aI0
aI0
aI0
aI0
aI0
aI0
aI0
aI0
aI0
aI0
aI0
aI0
aI0
aI0
aI0
aI0
aI0
aI0
aI0
aI0
aI0
aI0
aI0
aI0
aI0
aI0
aI0
aI0
aI0
aI0
aI0
aI0
aI0
aI0
aI0
aI0
aI0
aI0
a.