(lp0
F0.10662841796875
aF0.10650195312499999
aF0.106376953125
aF0.10625195312499999
aF0.10625195312499999
aF0.106126953125
aF0.10600195312499999
aF0.105876953125
aF0.10575195312499999
aF0.105626953125
aF0.10550195312499999
aF0.105376953125
aF0.105376953125
aF0.10525195312499999
aF0.105126953125
aF0.10500195312499999
aF0.104876953125
aF0.10475195312499999
aF0.104626953125
aF0.10450195312499999
aF0.104376953125
aF0.10425195312499999
aF0.104126953125
aF0.104126953125
aF0.10400195312499999
aF0.103876953125
aF0.10375195312499999
aF0.103626953125
aF0.10350195312499999
aF0.103376953125
aF0.10325195312499999
aF0.103126953125
aF0.10300195312499999
aF0.102876953125
aF0.10275195312499999
aF0.102626953125
aF0.10250195312499999
aF0.102376953125
aF0.10225195312499999
aF0.10225195312499999
aF0.102126953125
aF0.10200195312499999
aF0.101876953125
aF0.10175195312499999
aF0.101626953125
aF0.10150195312499999
aF0.101376953125
aF0.10125195312499999
aF0.101126953125
aF0.10100195312499999
aF0.100876953125
aF0.10075195312499999
aF0.100626953125
aF0.10050195312499999
aF0.100376953125
aF0.10025195312499999
aF0.100126953125
aF0.10000195312499999
aF0.099876953125
aF0.09975195312499999
aF0.099626953125
aF0.09950195312499999
aF0.099376953125
aF0.09925195312499999
aF0.099126953125
aF0.09900195312499999
aF0.09875195312499999
aF0.098626953125
aF0.09850195312499999
aF0.098376953125
aF0.09825195312499999
aF0.098126953125
aF0.09800195312499999
aF0.097876953125
aF0.09775195312499999
aF0.097626953125
aF0.09750195312499998
aF0.097376953125
aF0.09725195312499998
aF0.097126953125
aF0.09700195312499998
aF0.09675195312499998
aF0.096626953125
aF0.09650195312499998
aF0.096376953125
aF0.09625195312499998
aF0.096126953125
aF0.09600195312499998
aF0.095876953125
aF0.095626953125
aF0.09550195312499998
aF0.095376953125
aF0.09525195312499998
aF0.095126953125
aF0.09500195312499998
aF0.094876953125
aF0.094626953125
aF0.09450195312499998
aF0.094376953125
aF0.09425195312499998
aF0.094126953125
aF0.09400195312499998
aF0.09375195312499998
aF0.093626953125
aF0.09350195312499998
aF0.093376953125
aF0.09325195312499998
aF0.09300195312499998
aF0.092876953125
aF0.09275195312499998
aF0.092626953125
aF0.092376953125
aF0.09225195312499998
aF0.092126953125
aF0.09200195312499998
aF0.09175195312499998
aF0.091626953125
aF0.09150195312499998
aF0.091376953125
aF0.091126953125
aF0.09100195312499998
aF0.09087695312499999
aF0.09062695312499999
aF0.09050195312499998
aF0.09037695312499999
aF0.09012695312499999
aF0.09000195312499998
aF0.08987695312499999
aF0.08962695312499999
aF0.08950195312499998
aF0.08937695312499999
aF0.08912695312499999
aF0.08900195312499998
aF0.08887695312499999
aF0.08862695312499999
aF0.08850195312499998
aF0.08825195312499998
aF0.08812695312499999
aF0.08787695312499999
aF0.08775195312499998
aF0.08762695312499999
aF0.08737695312499999
aF0.08725195312499998
aF0.08700195312499998
aF0.08687695312499999
aF0.08662695312499999
aF0.08650195312499998
aF0.08625195312499997
aF0.08612695312499999
aF0.08587695312499999
aF0.08575195312499997
aF0.08550195312499997
aF0.08537695312499999
aF0.08512695312499999
aF0.08487695312499999
aF0.08475195312499997
aF0.08450195312499997
aF0.08437695312499999
aF0.08412695312499999
aF0.08387695312499999
aF0.08375195312499997
aF0.08350195312499997
aF0.08325195312499997
aF0.08312695312499999
aF0.08287695312499999
aF0.08262695312499999
aF0.08250195312499997
aF0.08225195312499997
aF0.08200195312499997
aF0.08175195312499997
aF0.08162695312499998
aF0.08137695312499998
aF0.08112695312499998
aF0.08087695312499998
aF0.08062695312499998
aF0.08037695312499998
aF0.08012695312499998
aF0.07987695312499998
aF0.07975195312499997
aF0.07950195312499997
aF0.07925195312499997
aF0.07900195312499997
aF0.07875195312499997
aF0.07850195312499997
aF0.07812695312499998
aF0.07787695312499998
aF0.07762695312499998
aF0.07737695312499998
aF0.07712695312499998
aF0.07687695312499998
aF0.07662695312499998
aF0.07625195312499997
aF0.07600195312499997
aF0.07575195312499997
aF0.07537695312499998
aF0.07512695312499998
aF0.07475195312499996
aF0.07450195312499996
aF0.07412695312499998
aF0.07387695312499998
aF0.07350195312499996
aF0.07325195312499996
aF0.07287695312499998
aF0.07250195312499996
aF0.07212695312499998
aF0.07175195312499996
aF0.07150195312499996
aF0.07112695312499998
aF0.07070280647277828
aF0.07033482742309566
aF0.06991609569266434
aF0.06950643106946514
aF0.06896327859124016
aF0.06859372270807881
aF0.06805279887568358
aF0.06768234596817194
aF0.06714943228290479
aF0.06662482734319461
aF0.06610432087957588
aF0.06545864366901413
aF0.06481939910193393
aF0.06418639715757911
aF0.06355957687283711
aF0.06269035318939561
aF0.061955821962903945
aF0.06098752286300306
aF0.05979612373060918
aF0.05851132494485016
aF0.05679666930879343
aF0.0544664481412611
aF0.05042217296082434
aF0.04051835237588286
aF7.932995541963075e-05
aF3.9664977709815376e-05
aF1.9832488854907688e-05
aF9.916244427453844e-06
aF4.958122213726922e-06
aF2.479061106863461e-06
aF1.2395305534317305e-06
aF6.197652767158652e-07
aF3.098826383579326e-07
aF1.549413191789663e-07
aF7.747065958948316e-08
aF3.873532979474158e-08
aI0
aI0
aI0
aI0
aI0
aI0
aI0
aI0
aI0
aI0
aI0
aI0
aI0
aI0
aI0
aI0
aI0
aI0
aI0
aI0
aI0
aI0
aI0
aI0
aI0
aI0
aI0
aI0
aI0
aI0
aI0
aI0
aI0
aI0
aI0
aI0
aI0
aI0
aI0
aI0
aI0
aI0
aI0
aI0
aI0
aI0
aI0
aI0
aI0
aI0
aI0
aI0
aI0
aI0
aI0
aI0
aI0
aI0
aI0
aI0
aI0
aI0
aI0
aI0
aI0
aI0
aI0
aI0
aI0
aI0
aI0
aI0
aI0
aI0
aI0
aI0
aI0
aI0
aI0
aI0
aI0
aI0
aI0
aI0
aI0
aI0
aI0
aI0
aI0
aI0
aI0
aI0
aI0
aI0
aI0
aI0
aI0
aI0
aI0
aI0
aI0
aI0
aI0
aI0
aI0
aI0
aI0
aI0
aI0
aI0
aI0
aI0
aI0
aI0
aI0
aI0
aI0
aI0
aI0
aI0
aI0
aI0
aI0
aI0
aI0
aI0
aI0
aI0
aI0
aI0
aI0
aI0
aI0
aI0
aI0
aI0
aI0
aI0
aI0
aI0
aI0
aI0
aI0
aI0
aI0
aI0
aI0
aI0
aI0
aI0
aI0
aI0
aI0
aI0
aI0
aI0
aI0
aI0
aI0
aI0
aI0
aI0
aI0
aI0
aI0
aI0
aI0
aI0
aI0
aI0
aI0
aI0
aI0
aI0
aI0
aI0
aI0
aI0
aI0
aI0
aI0
aI0
aI0
aI0
aI0
aI0
aI0
aI0
aI0
aI0
aI0
aI0
aI0
aI0
aI0
aI0
aI0
aI0
aI0
aI0
aI0
aI0
aI0
aI0
aI0
aI0
aI0
aI0
aI0
aI0
aI0
aI0
aI0
aI0
aI0
aI0
aI0
aI0
aI0
aI0
aI0
aI0
aI0
aI0
aI0
aI0
aI0
aI0
aI0
aI0
aI0
aI0
aI0
aI0
aI0
aI0
aI0
aI0
aI0
aI0
aI0
aI0
aI0
aI0
aI0
aI0
aI0
aI0
aI0
aI0
aI0
aI0
aI0
aI0
aI0
aI0
aI0
aI0
aI0
aI0
aI0
aI0
aI0
aI0
aI0
aI0
aI0
aI0
aI0
aI0
aI0
aI0
aI0
aI0
aI0
aI0
aI0
aI0
aI0
aI0
aI0
aI0
aI0
aI0
aI0
aI0
aI0
aI0
aI0
aI0
aI0
aI0
aI0
aI0
aI0
aI0
aI0
aI0
aI0
aI0
aI0
aI0
aI0
aI0
aI0
aI0
aI0
aI0
aI0
aI0
aI0
aI0
aI0
aI0
aI0
aI0
aI0
aI0
aI0
aI0
aI0
aI0
aI0
aI0
aI0
aI0
aI0
aI0
aI0
aI0
aI0
aI0
aI0
aI0
aI0
aI0
aI0
aI0
aI0
aI0
aI0
aI0
aI0
aI0
aI0
aI0
aI0
aI0
aI0
aI0
aI0
aI0
aI0
aI0
aI0
aI0
aI0
aI0
aI0
aI0
aI0
aI0
aI0
aI0
aI0
aI0
aI0
aI0
aI0
aI0
aI0
aI0
aI0
aI0
aI0
aI0
aI0
aI0
aI0
aI0
aI0
aI0
aI0
aI0
aI0
aI0
aI0
aI0
aI0
aI0
aI0
aI0
aI0
aI0
aI0
aI0
aI0
aI0
aI0
aI0
aI0
aI0
aI0
aI0
aI0
aI0
aI0
aI0
aI0
aI0
aI0
aI0
aI0
aI0
aI0
aI0
aI0
aI0
aI0
aI0
aI0
aI0
aI0
aI0
aI0
aI0
aI0
aI0
aI0
aI0
aI0
aI0
aI0
aI0
aI0
aI0
aI0
aI0
aI0
aI0
aI0
aI0
aI0
aI0
aI0
aI0
aI0
aI0
aI0
aI0
aI0
aI0
aI0
aI0
aI0
aI0
aI0
aI0
aI0
aI0
aI0
aI0
aI0
aI0
aI0
aI0
aI0
aI0
aI0
aI0
aI0
aI0
aI0
aI0
aI0
aI0
aI0
aI0
aI0
aI0
aI0
aI0
aI0
aI0
aI0
aI0
aI0
aI0
aI0
aI0
aI0
aI0
aI0
aI0
aI0
aI0
aI0
aI0
aI0
aI0
aI0
aI0
aI0
aI0
aI0
aI0
aI0
aI0
aI0
aI0
aI0
aI0
aI0
aI0
aI0
aI0
aI0
aI0
aI0
aI0
aI0
aI0
aI0
aI0
aI0
aI0
aI0
aI0
aI0
aI0
aI0
aI0
aI0
aI0
aI0
aI0
aI0
aI0
aI0
aI0
aI0
aI0
aI0
aI0
aI0
aI0
aI0
aI0
aI0
aI0
aI0
aI0
aI0
aI0
aI0
aI0
aI0
aI0
aI0
aI0
aI0
aI0
aI0
aI0
aI0
aI0
aI0
aI0
aI0
aI0
aI0
aI0
aI0
aI0
aI0
aI0
aI0
aI0
aI0
aI0
aI0
aI0
aI0
aI0
aI0
aI0
aI0
aI0
aI0
aI0
aI0
aI0
aI0
aI0
aI0
aI0
aI0
aI0
aI0
aI0
aI0
aI0
aI0
aI0
aI0
aI0
aI0
aI0
aI0
aI0
aI0
aI0
aI0
aI0
aI0
aI0
aI0
aI0
aI0
aI0
aI0
aI0
aI0
aI0
aI0
aI0
aI0
aI0
aI0
aI0
aI0
aI0
aI0
aI0
aI0
aI0
aI0
aI0
aI0
aI0
aI0
aI0
aI0
aI0
aI0
aI0
aI0
aI0
aI0
aI0
aI0
aI0
aI0
aI0
aI0
aI0
aI0
aI0
aI0
aI0
aI0
aI0
aI0
aI0
aI0
aI0
aI0
aI0
aI0
aI0
aI0
aI0
aI0
aI0
aI0
aI0
aI0
aI0
aI0
aI0
aI0
aI0
aI0
aI0
aI0
aI0
aI0
aI0
aI0
aI0
aI0
aI0
aI0
aI0
aI0
aI0
aI0
aI0
aI0
aI0
aI0
aI0
aI0
aI0
aI0
aI0
aI0
aI0
aI0
aI0
aI0
aI0
aI0
aI0
aI0
aI0
aI0
aI0
aI0
aI0
aI0
aI0
aI0
aI0
aI0
aI0
aI0
aI0
aI0
aI0
aI0
aI0
aI0
aI0
aI0
aI0
aI0
aI0
aI0
aI0
aI0
aI0
aI0
aI0
aI0
aI0
aI0
aI0
aI0
aI0
aI0
aI0
aI0
aI0
aI0
a.