(lp0
F0.09735107421875
aF0.09722460937499999
aF0.097099609375
aF0.09697460937499999
aF0.096849609375
aF0.09672460937499999
aF0.096599609375
aF0.09647460937499999
aF0.096349609375
aF0.09622460937499999
aF0.096099609375
aF0.09597460937499999
aF0.095849609375
aF0.09572460937499999
aF0.095599609375
aF0.09547460937499999
aF0.095349609375
aF0.09522460937499999
aF0.095099609375
aF0.09497460937499999
aF0.094849609375
aF0.09472460937499999
aF0.094599609375
aF0.09447460937499999
aF0.09422460937499999
aF0.094099609375
aF0.09397460937499999
aF0.093849609375
aF0.09372460937499999
aF0.093599609375
aF0.09347460937499999
aF0.093349609375
aF0.09322460937499999
aF0.093099609375
aF0.09297460937499999
aF0.092849609375
aF0.09272460937499999
aF0.092599609375
aF0.092349609375
aF0.09222460937499999
aF0.092099609375
aF0.09197460937499999
aF0.091849609375
aF0.09172460937499999
aF0.091599609375
aF0.09147460937499999
aF0.09122460937499999
aF0.091099609375
aF0.09097460937499999
aF0.090849609375
aF0.09072460937499999
aF0.090599609375
aF0.09047460937499999
aF0.09022460937499999
aF0.090099609375
aF0.08997460937499999
aF0.089849609375
aF0.08972460937499999
aF0.089599609375
aF0.089349609375
aF0.08922460937499999
aF0.089099609375
aF0.08897460937499999
aF0.08872460937499999
aF0.088599609375
aF0.08847460937499999
aF0.088349609375
aF0.08822460937499998
aF0.08797460937499998
aF0.087849609375
aF0.08772460937499998
aF0.087599609375
aF0.087349609375
aF0.08722460937499998
aF0.087099609375
aF0.08697460937499998
aF0.08672460937499998
aF0.086599609375
aF0.08647460937499998
aF0.08622460937499998
aF0.086099609375
aF0.08597460937499998
aF0.08572460937499998
aF0.085599609375
aF0.08547460937499998
aF0.08522460937499998
aF0.085099609375
aF0.08497460937499998
aF0.08472460937499998
aF0.084599609375
aF0.08447460937499998
aF0.08422460937499998
aF0.084099609375
aF0.083849609375
aF0.08372460937499998
aF0.08347460937499998
aF0.083349609375
aF0.08322460937499998
aF0.08297460937499998
aF0.082849609375
aF0.082599609375
aF0.08247460937499998
aF0.08222460937499998
aF0.082099609375
aF0.081849609375
aF0.08172460937499998
aF0.08147460937499998
aF0.08134960937499999
aF0.08109960937499999
aF0.08097460937499998
aF0.08072460937499998
aF0.08059960937499999
aF0.08034960937499999
aF0.08009960937499999
aF0.07997460937499998
aF0.07972460937499998
aF0.07947460937499998
aF0.07934960937499999
aF0.07909960937499999
aF0.07897460937499998
aF0.07872460937499998
aF0.07847460937499998
aF0.07822460937499998
aF0.07809960937499999
aF0.07784960937499999
aF0.07759960937499999
aF0.07734960937499999
aF0.07722460937499998
aF0.07697460937499997
aF0.07672460937499997
aF0.07647460937499997
aF0.07622460937499997
aF0.07609960937499999
aF0.07584960937499999
aF0.07559960937499999
aF0.07534960937499999
aF0.07509960937499999
aF0.07484960937499999
aF0.07459960937499999
aF0.07434960937499999
aF0.07409960937499999
aF0.07384960937499999
aF0.07359960937499999
aF0.07334960937499999
aF0.07309960937499999
aF0.07284960937499999
aF0.07247460937499997
aF0.07222460937499997
aF0.07197460937499997
aF0.07172460937499997
aF0.07134960937499998
aF0.07109960937499998
aF0.07084960937499998
aF0.07047460937499997
aF0.07022460937499997
aF0.06997460937499997
aF0.06959960937499998
aF0.06922460937499997
aF0.06897460937499997
aF0.06859960937499998
aF0.06834960937499998
aF0.06797460937499997
aF0.06759960937499998
aF0.06722460937499997
aF0.06684960937499998
aF0.06647460937499997
aF0.06609960937499998
aF0.06572460937499996
aF0.06534960937499998
aF0.06497460937499996
aF0.06446549415588376
aF0.06409150695800778
aF0.06359015338122842
aF0.06309335530793757
aF0.06260043846959432
aF0.06211137254405061
aF0.06162612744605021
aF0.06102419121045109
aF0.06042825184316153
aF0.05983813219625565
aF0.05913678871305862
aF0.05844377947032747
aF0.057644630516841266
aF0.05674382158209294
aF0.055746261535970315
aF0.054548371272826614
aF0.05316314116676892
aF0.0511896653448322
aF0.04798899173022522
aF0.041189717224131006
aF8.063192081887832e-05
aF4.031596040943916e-05
aF2.015798020471958e-05
aF1.007899010235979e-05
aF5.039495051179895e-06
aF2.5197475255899476e-06
aF1.2598737627949738e-06
aF6.299368813974869e-07
aF3.1496844069874344e-07
aF1.5748422034937172e-07
aF7.874211017468586e-08
aF3.937105508734293e-08
aI0
aI0
aI0
aI0
aI0
aI0
aI0
aI0
aI0
aI0
aI0
aI0
aI0
aI0
aI0
aI0
aI0
aI0
aI0
aI0
aI0
aI0
aI0
aI0
aI0
aI0
aI0
aI0
aI0
aI0
aI0
aI0
aI0
aI0
aI0
aI0
aI0
aI0
aI0
aI0
aI0
aI0
aI0
aI0
aI0
aI0
aI0
aI0
aI0
aI0
aI0
aI0
aI0
aI0
aI0
aI0
aI0
aI0
aI0
aI0
aI0
aI0
aI0
aI0
aI0
aI0
aI0
aI0
aI0
aI0
aI0
aI0
aI0
aI0
aI0
aI0
aI0
aI0
aI0
aI0
aI0
aI0
aI0
aI0
aI0
aI0
aI0
aI0
aI0
aI0
aI0
aI0
aI0
aI0
aI0
aI0
aI0
aI0
aI0
aI0
aI0
aI0
aI0
aI0
aI0
aI0
aI0
aI0
aI0
aI0
aI0
aI0
aI0
aI0
aI0
aI0
aI0
aI0
aI0
aI0
aI0
aI0
aI0
aI0
aI0
aI0
aI0
aI0
aI0
aI0
aI0
aI0
aI0
aI0
aI0
aI0
aI0
aI0
aI0
aI0
aI0
aI0
aI0
aI0
aI0
aI0
aI0
aI0
aI0
aI0
aI0
aI0
aI0
aI0
aI0
aI0
aI0
aI0
aI0
aI0
aI0
aI0
aI0
aI0
aI0
aI0
aI0
aI0
aI0
aI0
aI0
aI0
aI0
aI0
aI0
aI0
aI0
aI0
aI0
aI0
aI0
aI0
aI0
aI0
aI0
aI0
aI0
aI0
aI0
aI0
aI0
aI0
aI0
aI0
aI0
aI0
aI0
aI0
aI0
aI0
aI0
aI0
aI0
aI0
aI0
aI0
aI0
aI0
aI0
aI0
aI0
aI0
aI0
aI0
aI0
aI0
aI0
aI0
aI0
aI0
aI0
aI0
aI0
aI0
aI0
aI0
aI0
aI0
aI0
aI0
aI0
aI0
aI0
aI0
aI0
aI0
aI0
aI0
aI0
aI0
aI0
aI0
aI0
aI0
aI0
aI0
aI0
aI0
aI0
aI0
aI0
aI0
aI0
aI0
aI0
aI0
aI0
aI0
aI0
aI0
aI0
aI0
aI0
aI0
aI0
aI0
aI0
aI0
aI0
aI0
aI0
aI0
aI0
aI0
aI0
aI0
aI0
aI0
aI0
aI0
aI0
aI0
aI0
aI0
aI0
aI0
aI0
aI0
aI0
aI0
aI0
aI0
aI0
aI0
aI0
aI0
aI0
aI0
aI0
aI0
aI0
aI0
aI0
aI0
aI0
aI0
aI0
aI0
aI0
aI0
aI0
aI0
aI0
aI0
aI0
aI0
aI0
aI0
aI0
aI0
aI0
aI0
aI0
aI0
aI0
aI0
aI0
aI0
aI0
aI0
aI0
aI0
aI0
aI0
aI0
aI0
aI0
aI0
aI0
aI0
aI0
aI0
aI0
aI0
aI0
aI0
aI0
aI0
aI0
aI0
aI0
aI0
aI0
aI0
aI0
aI0
aI0
aI0
aI0
aI0
aI0
aI0
aI0
aI0
aI0
aI0
aI0
aI0
aI0
aI0
aI0
aI0
aI0
aI0
aI0
aI0
aI0
aI0
aI0
aI0
aI0
aI0
aI0
aI0
aI0
aI0
aI0
aI0
aI0
aI0
aI0
aI0
aI0
aI0
aI0
aI0
aI0
aI0
aI0
aI0
aI0
aI0
aI0
aI0
aI0
aI0
aI0
aI0
aI0
aI0
aI0
aI0
aI0
aI0
aI0
aI0
aI0
aI0
aI0
aI0
aI0
aI0
aI0
aI0
aI0
aI0
aI0
aI0
aI0
aI0
aI0
aI0
aI0
aI0
aI0
aI0
aI0
aI0
aI0
aI0
aI0
aI0
aI0
aI0
aI0
aI0
aI0
aI0
aI0
aI0
aI0
aI0
aI0
aI0
aI0
aI0
aI0
aI0
aI0
aI0
aI0
aI0
aI0
aI0
aI0
aI0
aI0
aI0
aI0
aI0
aI0
aI0
aI0
aI0
aI0
aI0
aI0
aI0
aI0
aI0
aI0
aI0
aI0
aI0
aI0
aI0
aI0
aI0
aI0
aI0
aI0
aI0
aI0
aI0
aI0
aI0
aI0
aI0
aI0
aI0
aI0
aI0
aI0
aI0
aI0
aI0
aI0
aI0
aI0
aI0
aI0
aI0
aI0
aI0
aI0
aI0
aI0
aI0
aI0
aI0
aI0
aI0
aI0
aI0
aI0
aI0
aI0
aI0
aI0
aI0
aI0
aI0
aI0
aI0
aI0
aI0
aI0
aI0
aI0
aI0
aI0
aI0
aI0
aI0
aI0
aI0
aI0
aI0
aI0
aI0
aI0
aI0
aI0
aI0
aI0
aI0
aI0
aI0
aI0
aI0
aI0
aI0
aI0
aI0
aI0
aI0
aI0
aI0
aI0
aI0
aI0
aI0
aI0
aI0
aI0
aI0
aI0
aI0
aI0
aI0
aI0
aI0
aI0
aI0
aI0
aI0
aI0
aI0
aI0
aI0
aI0
aI0
aI0
aI0
aI0
aI0
aI0
aI0
aI0
aI0
aI0
aI0
aI0
aI0
aI0
aI0
aI0
aI0
aI0
aI0
aI0
aI0
aI0
aI0
aI0
aI0
aI0
aI0
aI0
aI0
aI0
aI0
aI0
aI0
aI0
aI0
aI0
aI0
aI0
aI0
aI0
aI0
aI0
aI0
aI0
aI0
aI0
aI0
aI0
aI0
aI0
aI0
aI0
aI0
aI0
aI0
aI0
aI0
aI0
aI0
aI0
aI0
aI0
aI0
aI0
aI0
aI0
aI0
aI0
aI0
aI0
aI0
aI0
aI0
aI0
aI0
aI0
aI0
aI0
aI0
aI0
aI0
aI0
aI0
aI0
aI0
aI0
aI0
aI0
aI0
aI0
aI0
aI0
aI0
aI0
aI0
aI0
aI0
aI0
aI0
aI0
aI0
aI0
aI0
aI0
aI0
aI0
aI0
aI0
aI0
aI0
aI0
aI0
aI0
aI0
aI0
aI0
aI0
aI0
aI0
aI0
aI0
aI0
aI0
aI0
aI0
aI0
aI0
aI0
aI0
aI0
aI0
aI0
aI0
aI0
aI0
aI0
aI0
aI0
aI0
aI0
aI0
aI0
aI0
aI0
aI0
aI0
aI0
aI0
aI0
aI0
aI0
aI0
aI0
aI0
aI0
aI0
aI0
aI0
aI0
aI0
aI0
aI0
aI0
aI0
aI0
aI0
aI0
aI0
aI0
aI0
aI0
aI0
aI0
aI0
aI0
aI0
aI0
aI0
aI0
aI0
aI0
aI0
aI0
aI0
aI0
aI0
aI0
aI0
aI0
aI0
aI0
aI0
aI0
aI0
aI0
aI0
aI0
aI0
aI0
aI0
aI0
aI0
aI0
aI0
aI0
aI0
a.