(lp0
F0.08770751953125
aF0.08768284320831299
aF0.08751142024993896
aF0.0873404995072633
aF0.08716991259416318
aF0.0869996588586277
aF0.08682973764991944
aF0.08682990375112547
aF0.08666014831857194
aF0.08649089021638724
aF0.08632196269643336
aF0.08615336511304189
aF0.08598509682180547
aF0.08581715717957539
aF0.08581732134376258
aF0.08564954554445903
aF0.08548226127581751
aF0.08531530373426317
aF0.08514867228165718
aF0.08498236628110709
aF0.08481638509696429
aF0.08465072809482178
aF0.08448539464151159
aF0.0843203841051024
aF0.08432054540603304
aF0.0841556958548971
aF0.08399132926143049
aF0.08382728369646678
aF0.0836635585329971
aF0.08350015314523734
aF0.08333706690862556
aF0.08317429919981965
aF0.08301184939669501
aF0.08284971687834208
aF0.08268790102506408
aF0.08252640121837451
aF0.08236521684099488
aF0.0822043472768523
aF0.0820437919110772
aF0.0818835501300009
aF0.08172362132115324
aF0.08156400487326036
aF0.08140470017624227
aF0.08124570662121056
aF0.08108702360046602
aF0.08092865050749636
aF0.0807705867369739
aF0.08061283168475325
aF0.08045538474786897
aF0.08014095199382902
aF0.07998458030373434
aF0.0798283604203286
aF0.07967244565388265
aF0.07951683540846491
aF0.07936152908930776
aF0.07920652610280521
aF0.07905182585651066
aF0.07874287843933223
aF0.07858923468195053
aF0.07843574008296234
aF0.0782825452781128
aF0.0781296496818665
aF0.07782430627944995
aF0.07767245484768381
aF0.07752075083430943
aF0.07736934311783616
aF0.07721823111955914
aF0.07691644968940248
aF0.0767663696749432
aF0.07661643535917184
aF0.07631700584491116
aF0.07616809547025212
aF0.0760193296587868
aF0.07587085440554699
aF0.07557433874314773
aF0.07542687746669616
aF0.07513209693852131
aF0.0749854985679462
aF0.07483904251605566
aF0.07454655934265739
aF0.07440110347789486
aF0.07411033184162119
aF0.07396572714757607
aF0.07367665703294714
aF0.07353289852878492
aF0.07324551997892895
aF0.07310260271296173
aF0.072816905829272
aF0.07267482487878783
aF0.07239079982058172
aF0.07224955029167518
aF0.07196718727585527
aF0.07168606545055896
aF0.07154619100519918
aF0.07126657683208532
aF0.07098819176633499
aF0.07084967901789495
aF0.07057278692712617
aF0.07029711197819208
aF0.07002251388452727
aF0.06988588537477802
aF0.06961275994661961
aF0.06934083510307812
aF0.06906997246595672
aF0.06880016788601159
aF0.06853141723020686
aF0.06826371638165138
aF0.06799706123953554
aF0.06773144771906861
aF0.067466871751416
aF0.06720332928363704
aF0.06694081627862283
aF0.06667932871503446
aF0.06628850171857159
aF0.06602968956426924
aF0.06577176108940883
aF0.06538625361154408
aF0.06513096413116315
aF0.06487654630252579
aF0.0644962859396679
aF0.06411837801424015
aF0.06386803873798541
aF0.06349368953215256
aF0.06312165619505013
aF0.06287520844922037
aF0.06250667851132607
aF0.06214042844192377
aF0.06177632436902187
aF0.06129357819488541
aF0.060934554079996955
aF0.060577515677184474
aF0.0601041374982374
aF0.059752080473636414
aF0.05928515259244628
aF0.058821987337817794
aF0.0583624405617411
aF0.05790648399485249
aF0.05734087955989661
aF0.05689301449500361
aF0.05633730917331212
aF0.05567699770971281
aF0.05513338458991943
aF0.05448718393877085
aF0.05374213670846319
aF0.05300738093315216
aF0.052179037999490016
aF0.051159713756047887
aF0.050060479658371716
aF0.04864240936210502
aF0.04693156003256984
aF0.044179432783892664
aF0.038132100244484934
aF7.464563982808221e-05
aF3.732281991404111e-05
aF1.8661409957020553e-05
aF9.330704978510277e-06
aF4.665352489255138e-06
aF2.332676244627569e-06
aF1.1663381223137846e-06
aF5.831690611568923e-07
aF2.9158453057844615e-07
aF1.4579226528922307e-07
aF7.289613264461154e-08
aF3.644806632230577e-08
aI0
aI0
aI0
aI0
aI0
aI0
aI0
aI0
aI0
aI0
aI0
aI0
aI0
aI0
aI0
aI0
aI0
aI0
aI0
aI0
aI0
aI0
aI0
aI0
aI0
aI0
aI0
aI0
aI0
aI0
aI0
aI0
aI0
aI0
aI0
aI0
aI0
aI0
aI0
aI0
aI0
aI0
aI0
aI0
aI0
aI0
aI0
aI0
aI0
aI0
aI0
aI0
aI0
aI0
aI0
aI0
aI0
aI0
aI0
aI0
aI0
aI0
aI0
aI0
aI0
aI0
aI0
aI0
aI0
aI0
aI0
aI0
aI0
aI0
aI0
aI0
aI0
aI0
aI0
aI0
aI0
aI0
aI0
aI0
aI0
aI0
aI0
aI0
aI0
aI0
aI0
aI0
aI0
aI0
aI0
aI0
aI0
aI0
aI0
aI0
aI0
aI0
aI0
aI0
aI0
aI0
aI0
aI0
aI0
aI0
aI0
aI0
aI0
aI0
aI0
aI0
aI0
aI0
aI0
aI0
aI0
aI0
aI0
aI0
aI0
aI0
aI0
aI0
aI0
aI0
aI0
aI0
aI0
aI0
aI0
aI0
aI0
aI0
aI0
aI0
aI0
aI0
aI0
aI0
aI0
aI0
aI0
aI0
aI0
aI0
aI0
aI0
aI0
aI0
aI0
aI0
aI0
aI0
aI0
aI0
aI0
aI0
aI0
aI0
aI0
aI0
aI0
aI0
aI0
aI0
aI0
aI0
aI0
aI0
aI0
aI0
aI0
aI0
aI0
aI0
aI0
aI0
aI0
aI0
aI0
aI0
aI0
aI0
aI0
aI0
aI0
aI0
aI0
aI0
aI0
aI0
aI0
aI0
aI0
aI0
aI0
aI0
aI0
aI0
aI0
aI0
aI0
aI0
aI0
aI0
aI0
aI0
aI0
aI0
aI0
aI0
aI0
aI0
aI0
aI0
aI0
aI0
aI0
aI0
aI0
aI0
aI0
aI0
aI0
aI0
aI0
aI0
aI0
aI0
aI0
aI0
aI0
aI0
aI0
aI0
aI0
aI0
aI0
aI0
aI0
aI0
aI0
aI0
aI0
aI0
aI0
aI0
aI0
aI0
aI0
aI0
aI0
aI0
aI0
aI0
aI0
aI0
aI0
aI0
aI0
aI0
aI0
aI0
aI0
aI0
aI0
aI0
aI0
aI0
aI0
aI0
aI0
aI0
aI0
aI0
aI0
aI0
aI0
aI0
aI0
aI0
aI0
aI0
aI0
aI0
aI0
aI0
aI0
aI0
aI0
aI0
aI0
aI0
aI0
aI0
aI0
aI0
aI0
aI0
aI0
aI0
aI0
aI0
aI0
aI0
aI0
aI0
aI0
aI0
aI0
aI0
aI0
aI0
aI0
aI0
aI0
aI0
aI0
aI0
aI0
aI0
aI0
aI0
aI0
aI0
aI0
aI0
aI0
aI0
aI0
aI0
aI0
aI0
aI0
aI0
aI0
aI0
aI0
aI0
aI0
aI0
aI0
aI0
aI0
aI0
aI0
aI0
aI0
aI0
aI0
aI0
aI0
aI0
aI0
aI0
aI0
aI0
aI0
aI0
aI0
aI0
aI0
aI0
aI0
aI0
aI0
aI0
aI0
aI0
aI0
aI0
aI0
aI0
aI0
aI0
aI0
aI0
aI0
aI0
aI0
aI0
aI0
aI0
aI0
aI0
aI0
aI0
aI0
aI0
aI0
aI0
aI0
aI0
aI0
aI0
aI0
aI0
aI0
aI0
aI0
aI0
aI0
aI0
aI0
aI0
aI0
aI0
aI0
aI0
aI0
aI0
aI0
aI0
aI0
aI0
aI0
aI0
aI0
aI0
aI0
aI0
aI0
aI0
aI0
aI0
aI0
aI0
aI0
aI0
aI0
aI0
aI0
aI0
aI0
aI0
aI0
aI0
aI0
aI0
aI0
aI0
aI0
aI0
aI0
aI0
aI0
aI0
aI0
aI0
aI0
aI0
aI0
aI0
aI0
aI0
aI0
aI0
aI0
aI0
aI0
aI0
aI0
aI0
aI0
aI0
aI0
aI0
aI0
aI0
aI0
aI0
aI0
aI0
aI0
aI0
aI0
aI0
aI0
aI0
aI0
aI0
aI0
aI0
aI0
aI0
aI0
aI0
aI0
aI0
aI0
aI0
aI0
aI0
aI0
aI0
aI0
aI0
aI0
aI0
aI0
aI0
aI0
aI0
aI0
aI0
aI0
aI0
aI0
aI0
aI0
aI0
aI0
aI0
aI0
aI0
aI0
aI0
aI0
aI0
aI0
aI0
aI0
aI0
aI0
aI0
aI0
aI0
aI0
aI0
aI0
aI0
aI0
aI0
aI0
aI0
aI0
aI0
aI0
aI0
aI0
aI0
aI0
aI0
aI0
aI0
aI0
aI0
aI0
aI0
aI0
aI0
aI0
aI0
aI0
aI0
aI0
aI0
aI0
aI0
aI0
aI0
aI0
aI0
aI0
aI0
aI0
aI0
aI0
aI0
aI0
aI0
aI0
aI0
aI0
aI0
aI0
aI0
aI0
aI0
aI0
aI0
aI0
aI0
aI0
aI0
aI0
aI0
aI0
aI0
aI0
aI0
aI0
aI0
aI0
aI0
aI0
aI0
aI0
aI0
aI0
aI0
aI0
aI0
aI0
aI0
aI0
aI0
aI0
aI0
aI0
aI0
aI0
aI0
aI0
aI0
aI0
aI0
aI0
aI0
aI0
aI0
aI0
aI0
aI0
aI0
aI0
aI0
aI0
aI0
aI0
aI0
aI0
aI0
aI0
aI0
aI0
aI0
aI0
aI0
aI0
aI0
aI0
aI0
aI0
aI0
aI0
aI0
aI0
aI0
aI0
aI0
aI0
aI0
aI0
aI0
aI0
aI0
aI0
aI0
aI0
aI0
aI0
aI0
aI0
aI0
aI0
aI0
aI0
aI0
aI0
aI0
aI0
aI0
aI0
aI0
aI0
aI0
aI0
aI0
aI0
aI0
aI0
aI0
aI0
aI0
aI0
aI0
aI0
aI0
aI0
aI0
aI0
aI0
aI0
aI0
aI0
aI0
aI0
aI0
aI0
aI0
aI0
aI0
aI0
aI0
aI0
aI0
aI0
aI0
aI0
aI0
aI0
aI0
aI0
aI0
aI0
aI0
aI0
aI0
aI0
aI0
aI0
aI0
aI0
aI0
aI0
aI0
aI0
aI0
aI0
aI0
aI0
aI0
aI0
aI0
aI0
aI0
aI0
aI0
aI0
aI0
aI0
aI0
aI0
aI0
aI0
aI0
aI0
aI0
aI0
aI0
aI0
aI0
aI0
aI0
aI0
aI0
aI0
aI0
aI0
aI0
aI0
aI0
aI0
aI0
aI0
aI0
aI0
aI0
aI0
aI0
aI0
aI0
aI0
aI0
aI0
aI0
aI0
aI0
aI0
aI0
aI0
aI0
aI0
aI0
aI0
aI0
aI0
aI0
aI0
aI0
aI0
aI0
aI0
aI0
aI0
aI0
aI0
aI0
aI0
aI0
aI0
aI0
aI0
aI0
aI0
aI0
aI0
aI0
aI0
aI0
aI0
aI0
aI0
aI0
aI0
aI0
aI0
aI0
aI0
aI0
aI0
aI0
aI0
aI0
aI0
aI0
aI0
aI0
aI0
a.